---
triple:          'x86_64-apple-darwin'
binary-path:     '/Users/rahulpandit/Git/RP/Edit/target/release/deps/edit-82c6ba3dec1b0ce5'
relocations:
  - { offsetInCU: 0x15B, offset: 0x15B, size: 0x8, addend: 0x0, symName: __ZN3std3sys9backtrace28__rust_begin_short_backtrace17h2c6b6cfdea4ada2aE, symObjAddr: 0xC94, symBinAddr: 0x100003034, symSize: 0xC }
  - { offsetInCU: 0x3BA9, offset: 0x3BA9, size: 0x8, addend: 0x0, symName: '__ZN4core3ptr77drop_in_place$LT$core..iter..adapters..skip..Skip$LT$std..env..ArgsOs$GT$$GT$17h76fb05dd1a72201bE', symObjAddr: 0x3600, symBinAddr: 0x1000059A0, symSize: 0x6D }
  - { offsetInCU: 0x3E38, offset: 0x3E38, size: 0x8, addend: 0x0, symName: '__ZN4core3ptr52drop_in_place$LT$edit..state..DisplayablePathBuf$GT$17h4590604fdcea1fc4E', symObjAddr: 0x3E96, symBinAddr: 0x100006236, symSize: 0x37 }
  - { offsetInCU: 0x3F6D, offset: 0x3F6D, size: 0x8, addend: 0x0, symName: '__ZN4core3ptr96drop_in_place$LT$alloc..vec..Vec$LT$std..path..PathBuf$C$$RF$edit..arena..release..Arena$GT$$GT$17h6461b22dbbaf5670E', symObjAddr: 0x3ECD, symBinAddr: 0x10000626D, symSize: 0x32 }
  - { offsetInCU: 0x4475, offset: 0x4475, size: 0x8, addend: 0x0, symName: '__ZN4core3ptr35drop_in_place$LT$edit..tui..Tui$GT$17h4acc18e2f6fc1df5E', symObjAddr: 0xA822, symBinAddr: 0x10000C202, symSize: 0x1B5 }
  - { offsetInCU: 0x4B77, offset: 0x4B77, size: 0x8, addend: 0x0, symName: '__ZN4core3ptr39drop_in_place$LT$edit..state..State$GT$17h042c182eb776b9c4E', symObjAddr: 0xA9D7, symBinAddr: 0x10000C3B7, symSize: 0x139 }
  - { offsetInCU: 0x50D1, offset: 0x50D1, size: 0x8, addend: 0x0, symName: '__ZN4core3ptr97drop_in_place$LT$alloc..collections..linked_list..LinkedList$LT$edit..documents..Document$GT$$GT$17h4adaf4b164d4a1e8E', symObjAddr: 0xADD3, symBinAddr: 0x10000C7B3, symSize: 0x63 }
  - { offsetInCU: 0x5311, offset: 0x5311, size: 0x8, addend: 0x0, symName: '__ZN4core3ptr75drop_in_place$LT$alloc..vec..Vec$LT$edit..state..DisplayablePathBuf$GT$$GT$17h8eff3f5b35e71cc3E', symObjAddr: 0xAE36, symBinAddr: 0x10000C816, symSize: 0x4C }
  - { offsetInCU: 0x5438, offset: 0x5438, size: 0x8, addend: 0x0, symName: '__ZN4core3ptr46drop_in_place$LT$edit..documents..Document$GT$17h6745c677fcacfe47E', symObjAddr: 0xAE82, symBinAddr: 0x10000C862, symSize: 0x57 }
  - { offsetInCU: 0xD279, offset: 0xD279, size: 0x8, addend: 0x0, symName: __ZN4core5slice4sort6stable14driftsort_main17h7b91b720a7837559E, symObjAddr: 0xBA2E, symBinAddr: 0x10000D40E, symSize: 0x125 }
  - { offsetInCU: 0xD527, offset: 0xD527, size: 0x8, addend: 0x0, symName: __ZN4core5slice4sort6stable14driftsort_main17h213e7cfea7d71a25E, symObjAddr: 0xC321, symBinAddr: 0x10000DD01, symSize: 0x124 }
  - { offsetInCU: 0xDA14, offset: 0xDA14, size: 0x8, addend: 0x0, symName: __ZN4core5slice4sort6stable5drift4sort17h5738b67c1605c8f5E, symObjAddr: 0xC62F, symBinAddr: 0x10000E00F, symSize: 0x5DC }
  - { offsetInCU: 0xEF47, offset: 0xEF47, size: 0x8, addend: 0x0, symName: __ZN4core5slice4sort6stable5drift4sort17h75715b47a639428cE, symObjAddr: 0xD7E9, symBinAddr: 0x10000F1C9, symSize: 0x7A7 }
  - { offsetInCU: 0x11453, offset: 0x11453, size: 0x8, addend: 0x0, symName: __ZN4core5slice4sort6stable9quicksort9quicksort17h7c621a1e99397708E, symObjAddr: 0xCC0B, symBinAddr: 0x10000E5EB, symSize: 0x7CD }
  - { offsetInCU: 0x12E07, offset: 0x12E07, size: 0x8, addend: 0x0, symName: __ZN4core5slice4sort6stable9quicksort9quicksort17hd1aef75de9e72083E, symObjAddr: 0xDF90, symBinAddr: 0x10000F970, symSize: 0xBA4 }
  - { offsetInCU: 0x1578C, offset: 0x1578C, size: 0x8, addend: 0x0, symName: __ZN4core5slice4sort6shared9smallsort11insert_tail17hd59c41b6460c4b6dE, symObjAddr: 0xBB53, symBinAddr: 0x10000D533, symSize: 0x195 }
  - { offsetInCU: 0x161B9, offset: 0x161B9, size: 0x8, addend: 0x0, symName: __ZN4core5slice4sort6shared9smallsort12sort4_stable17hb5ec659d0c712c10E, symObjAddr: 0xD3D8, symBinAddr: 0x10000EDB8, symSize: 0x122 }
  - { offsetInCU: 0x16CB4, offset: 0x16CB4, size: 0x8, addend: 0x0, symName: __ZN4core5slice4sort6shared9smallsort12sort4_stable17haa175c655d0bffa9E, symObjAddr: 0xEB34, symBinAddr: 0x100010514, symSize: 0x392 }
  - { offsetInCU: 0x1863B, offset: 0x1863B, size: 0x8, addend: 0x0, symName: __ZN4core5slice4sort6shared5pivot11median3_rec17hea3bfe158656fc97E, symObjAddr: 0xD4FA, symBinAddr: 0x10000EEDA, symSize: 0xB1 }
  - { offsetInCU: 0x189DA, offset: 0x189DA, size: 0x8, addend: 0x0, symName: __ZN4core5slice4sort6shared5pivot11median3_rec17h2b1a698a30b03808E, symObjAddr: 0xEEC6, symBinAddr: 0x1000108A6, symSize: 0x1D7 }
  - { offsetInCU: 0x1A1A9, offset: 0x1A1A9, size: 0x8, addend: 0x0, symName: __ZN4core4iter6traits8iterator8Iterator3nth17heb2273d51d810128E, symObjAddr: 0x3538, symBinAddr: 0x1000058D8, symSize: 0xC8 }
  - { offsetInCU: 0x1B665, offset: 0x1B665, size: 0x8, addend: 0x0, symName: '__ZN81_$LT$core..str..pattern..CharSearcher$u20$as$u20$core..str..pattern..Searcher$GT$10next_match17h00ed68b31b319461E', symObjAddr: 0xB49F, symBinAddr: 0x10000CE7F, symSize: 0x139 }
  - { offsetInCU: 0x1FF81, offset: 0x1FF81, size: 0x8, addend: 0x0, symName: __ZN4edit12localization6S_LANG17h8136d5189a7c6658E.0, symObjAddr: 0x3E8F80, symBinAddr: 0x100076B90, symSize: 0x0 }
  - { offsetInCU: 0x201DA, offset: 0x201DA, size: 0x8, addend: 0x0, symName: __ZN4edit12localization3loc17h57ff2fdea0bf8756E, symObjAddr: 0x475C, symBinAddr: 0x1000062EC, symSize: 0x49 }
  - { offsetInCU: 0x2289D, offset: 0x2289D, size: 0x8, addend: 0x0, symName: '__ZN64_$LT$edit..state..FormatApperr$u20$as$u20$core..fmt..Display$GT$3fmt17h533fb5e20a2bd990E', symObjAddr: 0xAB10, symBinAddr: 0x10000C4F0, symSize: 0x2C3 }
  - { offsetInCU: 0x22C62, offset: 0x22C62, size: 0x8, addend: 0x0, symName: __ZN4edit5state26draw_add_untitled_document17hf04f0a7616ba2d3cE, symObjAddr: 0xAED9, symBinAddr: 0x10000C8B9, symSize: 0x52 }
  - { offsetInCU: 0x22CB8, offset: 0x22CB8, size: 0x8, addend: 0x0, symName: __ZN4edit5state13error_log_add17h859b879296f8b874E, symObjAddr: 0xAF2B, symBinAddr: 0x10000C90B, symSize: 0x12C }
  - { offsetInCU: 0x238DC, offset: 0x238DC, size: 0x8, addend: 0x0, symName: __ZN4edit11draw_editor14search_execute17hdcfacf7b98c8c823E, symObjAddr: 0xB057, symBinAddr: 0x10000CA37, symSize: 0x3CD }
  - { offsetInCU: 0x23925, offset: 0x23925, size: 0x8, addend: 0x0, symName: __ZN4edit11draw_editor14search_execute17hdcfacf7b98c8c823E, symObjAddr: 0xB057, symBinAddr: 0x10000CA37, symSize: 0x3CD }
  - { offsetInCU: 0x23943, offset: 0x23943, size: 0x8, addend: 0x0, symName: __ZN4edit11draw_editor14search_execute17hdcfacf7b98c8c823E, symObjAddr: 0xB057, symBinAddr: 0x10000CA37, symSize: 0x3CD }
  - { offsetInCU: 0x23961, offset: 0x23961, size: 0x8, addend: 0x0, symName: __ZN4edit11draw_editor14search_execute17hdcfacf7b98c8c823E, symObjAddr: 0xB057, symBinAddr: 0x10000CA37, symSize: 0x3CD }
  - { offsetInCU: 0x24DEF, offset: 0x24DEF, size: 0x8, addend: 0x0, symName: __ZN4edit4main17heb2c1569b31efd5aE, symObjAddr: 0x12E0, symBinAddr: 0x100003680, symSize: 0x2258 }
  - { offsetInCU: 0x29B2B, offset: 0x29B2B, size: 0x8, addend: 0x0, symName: __ZN4edit14setup_terminal17h275717d73b717f73E, symObjAddr: 0x3EFF, symBinAddr: 0x100059D3F, symSize: 0x814 }
  - { offsetInCU: 0x2BD75, offset: 0x2BD75, size: 0x8, addend: 0x0, symName: __ZN4edit15draw_filepicker31update_autocomplete_suggestions17h6235c534bf0c78adE, symObjAddr: 0xB5D8, symBinAddr: 0x10000CFB8, symSize: 0x411 }
  - { offsetInCU: 0x2D065, offset: 0x2D065, size: 0x8, addend: 0x0, symName: __ZN4edit4draw17h7505136f05f6586fE, symObjAddr: 0x47A5, symBinAddr: 0x100006335, symSize: 0x5EC7 }
  - { offsetInCU: 0x3B2AF, offset: 0x3B2AF, size: 0x8, addend: 0x0, symName: __ZN4edit19write_osc_clipboard17h2034927dd162b436E, symObjAddr: 0xA66C, symBinAddr: 0x10005A55C, symSize: 0x1B6 }
  - { offsetInCU: 0x3CA28, offset: 0x3CA28, size: 0x8, addend: 0x0, symName: '__ZN5alloc7raw_vec19RawVec$LT$T$C$A$GT$8grow_one17h0590e947c015f195E', symObjAddr: 0x366D, symBinAddr: 0x100005A0D, symSize: 0x42 }
  - { offsetInCU: 0x3CE9C, offset: 0x3CE9C, size: 0x8, addend: 0x0, symName: __ZN4edit9documents15DocumentManager13add_file_path17hf3fc9c0e4d5a7552E, symObjAddr: 0x36AF, symBinAddr: 0x100005A4F, symSize: 0x670 }
  - { offsetInCU: 0x3E0ED, offset: 0x3E0ED, size: 0x8, addend: 0x0, symName: __ZN4edit9documents15DocumentManager12add_untitled17h1580447e130833e2E, symObjAddr: 0x3D1F, symBinAddr: 0x1000060BF, symSize: 0x177 }
  - { offsetInCU: 0x3E75A, offset: 0x3E75A, size: 0x8, addend: 0x0, symName: __ZN4edit3tui3Tui13indexed_alpha17h5a661ef99efdae05E, symObjAddr: 0x4713, symBinAddr: 0x1000062A3, symSize: 0x49 }
  - { offsetInCU: 0x40760, offset: 0x40760, size: 0x8, addend: 0x0, symName: __ZN4edit9documents15DocumentManager13remove_active17h800dcbde8dde222aE, symObjAddr: 0xB424, symBinAddr: 0x10000CE04, symSize: 0x7B }
  - { offsetInCU: 0x40B18, offset: 0x40B18, size: 0x8, addend: 0x0, symName: '__ZN5alloc7raw_vec19RawVec$LT$T$C$A$GT$8grow_one17hc6df4def1e38c205E', symObjAddr: 0xB9E9, symBinAddr: 0x10000D3C9, symSize: 0x45 }
  - { offsetInCU: 0x40E21, offset: 0x40E21, size: 0x8, addend: 0x0, symName: __ZN4edit9documents8Document4save17h4a2329b1e3ab119fE, symObjAddr: 0xBCE8, symBinAddr: 0x10000D6C8, symSize: 0x639 }
  - { offsetInCU: 0x41ECC, offset: 0x41ECC, size: 0x8, addend: 0x0, symName: '__ZN5alloc7raw_vec19RawVec$LT$T$C$A$GT$8grow_one17h0ed44a75a85d698bE', symObjAddr: 0xC445, symBinAddr: 0x10000DE25, symSize: 0x42 }
  - { offsetInCU: 0x41F32, offset: 0x41F32, size: 0x8, addend: 0x0, symName: __ZN4edit9documents15DocumentManager16open_for_reading17h7bf622c4915b2485E, symObjAddr: 0xC487, symBinAddr: 0x10000DE67, symSize: 0x84 }
  - { offsetInCU: 0x42148, offset: 0x42148, size: 0x8, addend: 0x0, symName: '__ZN5alloc11collections11linked_list22CursorMut$LT$T$C$A$GT$22remove_current_as_list17h93cf635197d83878E', symObjAddr: 0xC50B, symBinAddr: 0x10000DEEB, symSize: 0x85 }
  - { offsetInCU: 0x4234B, offset: 0x4234B, size: 0x8, addend: 0x0, symName: '__ZN5alloc11collections11linked_list18CursorMut$LT$T$GT$13splice_before17ha9d0ad5b9962dac7E', symObjAddr: 0xC590, symBinAddr: 0x10000DF70, symSize: 0x9F }
  - { offsetInCU: 0x42A75, offset: 0x42A75, size: 0x8, addend: 0x0, symName: __ZN4edit9documents8Document8set_path17hcadff7bd20a6f690E, symObjAddr: 0xD5AB, symBinAddr: 0x10000EF8B, symSize: 0x23E }
  - { offsetInCU: 0x43457, offset: 0x43457, size: 0x8, addend: 0x0, symName: __ZN4edit9documents15DocumentManager13create_buffer17h3b7cc439cbee0be9E, symObjAddr: 0xF09D, symBinAddr: 0x100010A7D, symSize: 0x76 }
  - { offsetInCU: 0x43687, offset: 0x43687, size: 0x8, addend: 0x0, symName: '__ZN5alloc11collections11linked_list23LinkedList$LT$T$C$A$GT$10push_front17hba8298389d48810cE', symObjAddr: 0xF113, symBinAddr: 0x100010AF3, symSize: 0x7A }
  - { offsetInCU: 0x1F, offset: 0x43D92, size: 0x8, addend: 0x0, symName: __ZN4edit4simd6memset15memset_dispatch17h5f7fe56dde843e72E, symObjAddr: 0x13086, symBinAddr: 0x1000142C6, symSize: 0x5D }
  - { offsetInCU: 0x249, offset: 0x43FBC, size: 0x8, addend: 0x0, symName: '__ZN60_$LT$core..alloc..AllocError$u20$as$u20$core..fmt..Debug$GT$3fmt17h11e2d5554e468cc5E', symObjAddr: 0x13EA8, symBinAddr: 0x100014F98, symSize: 0x1E }
  - { offsetInCU: 0x2039, offset: 0x45DAC, size: 0x8, addend: 0x0, symName: '__ZN4core3ptr212drop_in_place$LT$core..option..Option$LT$alloc..boxed..Box$LT$alloc..collections..linked_list..Node$LT$edit..cell..release..SemiRefCell$LT$edit..buffer..HistoryEntry$GT$$GT$$C$$RF$alloc..alloc..Global$GT$$GT$$GT$17h8bbf75392735f9edE', symObjAddr: 0x134D4, symBinAddr: 0x1000145C4, symSize: 0x37 }
  - { offsetInCU: 0x22EE, offset: 0x46061, size: 0x8, addend: 0x0, symName: '__ZN4core3ptr42drop_in_place$LT$std..io..error..Error$GT$17h0990ea0c0a910752E', symObjAddr: 0x135AD, symBinAddr: 0x10001469D, symSize: 0x5B }
  - { offsetInCU: 0x24ED, offset: 0x46260, size: 0x8, addend: 0x0, symName: '__ZN4core3ptr53drop_in_place$LT$edit..arena..string..ArenaString$GT$17h41905614857db52aE', symObjAddr: 0x136BF, symBinAddr: 0x1000147AF, symSize: 0x6 }
  - { offsetInCU: 0x2548, offset: 0x462BB, size: 0x8, addend: 0x0, symName: '__ZN4core3ptr60drop_in_place$LT$edit..buffer..gap_buffer..BackingBuffer$GT$17h9e7685914d53d5b2E', symObjAddr: 0x137DE, symBinAddr: 0x1000148CE, symSize: 0x2C }
  - { offsetInCU: 0x2646, offset: 0x463B9, size: 0x8, addend: 0x0, symName: '__ZN4core3ptr47drop_in_place$LT$edit..buffer..ActiveSearch$GT$17h13c04e44a296f3c5E', symObjAddr: 0x13859, symBinAddr: 0x100014949, symSize: 0x59 }
  - { offsetInCU: 0x277A, offset: 0x464ED, size: 0x8, addend: 0x0, symName: '__ZN4core3ptr39drop_in_place$LT$std..path..PathBuf$GT$17h2607eab05b3c685dE', symObjAddr: 0x138B2, symBinAddr: 0x1000149A2, symSize: 0x14 }
  - { offsetInCU: 0x290C, offset: 0x4667F, size: 0x8, addend: 0x0, symName: '__ZN4core3ptr56drop_in_place$LT$edit..buffer..gap_buffer..GapBuffer$GT$17h1107bf2c63ec14a5E', symObjAddr: 0x13963, symBinAddr: 0x100014A53, symSize: 0xA }
  - { offsetInCU: 0xEAB0, offset: 0x52823, size: 0x8, addend: 0x0, symName: '__ZN42_$LT$$RF$T$u20$as$u20$core..fmt..Debug$GT$3fmt17h79aee9d2611e6fa4E', symObjAddr: 0x13608, symBinAddr: 0x1000146F8, symSize: 0x96 }
  - { offsetInCU: 0xEAEE, offset: 0x52861, size: 0x8, addend: 0x0, symName: '__ZN42_$LT$$RF$T$u20$as$u20$core..fmt..Debug$GT$3fmt17h79aee9d2611e6fa4E', symObjAddr: 0x13608, symBinAddr: 0x1000146F8, symSize: 0x96 }
  - { offsetInCU: 0xEB0C, offset: 0x5287F, size: 0x8, addend: 0x0, symName: '__ZN42_$LT$$RF$T$u20$as$u20$core..fmt..Debug$GT$3fmt17h79aee9d2611e6fa4E', symObjAddr: 0x13608, symBinAddr: 0x1000146F8, symSize: 0x96 }
  - { offsetInCU: 0xEC62, offset: 0x529D5, size: 0x8, addend: 0x0, symName: __ZN4core3fmt5Write9write_fmt17h331d23cca24b822fE, symObjAddr: 0x1369E, symBinAddr: 0x10001478E, symSize: 0x21 }
  - { offsetInCU: 0xED03, offset: 0x52A76, size: 0x8, addend: 0x0, symName: '__ZN53_$LT$core..fmt..Error$u20$as$u20$core..fmt..Debug$GT$3fmt17h83dc88809ba1590fE.209', symObjAddr: 0x17008, symBinAddr: 0x100017EE8, symSize: 0x1E }
  - { offsetInCU: 0xF71B, offset: 0x5348E, size: 0x8, addend: 0x0, symName: '__ZN56_$LT$edit..apperr..Error$u20$as$u20$core..fmt..Debug$GT$3fmt17hb5a98459ad4386d4E', symObjAddr: 0x273E2, symBinAddr: 0x1000278A2, symSize: 0x4E }
  - { offsetInCU: 0xF9C9, offset: 0x5373C, size: 0x8, addend: 0x0, symName: '__ZN69_$LT$edit..arena..string..ArenaString$u20$as$u20$core..fmt..Write$GT$9write_str17h1caeb81e9060c31aE', symObjAddr: 0x136C5, symBinAddr: 0x1000147B5, symSize: 0x10 }
  - { offsetInCU: 0xFADE, offset: 0x53851, size: 0x8, addend: 0x0, symName: '__ZN69_$LT$edit..arena..string..ArenaString$u20$as$u20$core..fmt..Write$GT$10write_char17hda63690da6bd0387E', symObjAddr: 0x136D5, symBinAddr: 0x1000147C5, symSize: 0xC4 }
  - { offsetInCU: 0xFF9A, offset: 0x53D0D, size: 0x8, addend: 0x0, symName: '__ZN70_$LT$edit..arena..release..Arena$u20$as$u20$core..alloc..Allocator$GT$8allocate17h2829bbd246828406E', symObjAddr: 0x1343B, symBinAddr: 0x10001458B, symSize: 0x32 }
  - { offsetInCU: 0x1013F, offset: 0x53EB2, size: 0x8, addend: 0x0, symName: __ZN4edit5arena7scratch9S_SCRATCH17h6a6680668dc30260E, symObjAddr: 0x71330, symBinAddr: 0x100076088, symSize: 0x0 }
  - { offsetInCU: 0x104E9, offset: 0x5425C, size: 0x8, addend: 0x0, symName: '__ZN88_$LT$edit..buffer..gap_buffer..GapBuffer$u20$as$u20$edit..document..ReadableDocument$GT$12read_forward17h4c0c011c0fb21ed4E', symObjAddr: 0x146A8, symBinAddr: 0x100015798, symSize: 0x2D }
  - { offsetInCU: 0x10580, offset: 0x542F3, size: 0x8, addend: 0x0, symName: '__ZN88_$LT$edit..buffer..gap_buffer..GapBuffer$u20$as$u20$edit..document..ReadableDocument$GT$13read_backward17h8f7757643cd9e972E', symObjAddr: 0x146D5, symBinAddr: 0x1000157C5, symSize: 0x30 }
  - { offsetInCU: 0x106DE, offset: 0x54451, size: 0x8, addend: 0x0, symName: '__ZN98_$LT$edit..buffer..navigation..WordForward$u20$as$u20$edit..buffer..navigation..WordNavigation$GT$10skip_class17h88c91d1278a3a55cE', symObjAddr: 0x14705, symBinAddr: 0x1000157F5, symSize: 0xA4 }
  - { offsetInCU: 0x10833, offset: 0x545A6, size: 0x8, addend: 0x0, symName: '__ZN99_$LT$edit..buffer..navigation..WordBackward$u20$as$u20$edit..buffer..navigation..WordNavigation$GT$10skip_class17hb027cb8707890e08E', symObjAddr: 0x147A9, symBinAddr: 0x100015899, symSize: 0x9F }
  - { offsetInCU: 0x10DAF, offset: 0x54B22, size: 0x8, addend: 0x0, symName: __ZN4edit3icu9ENCODINGS17h577ebe754d92a0e6E, symObjAddr: 0x71370, symBinAddr: 0x1000760C8, symSize: 0x0 }
  - { offsetInCU: 0x10E0C, offset: 0x54B7F, size: 0x8, addend: 0x0, symName: __ZN4edit3icu13ROOT_COLLATOR17h485a90f2ce1f67baE.0, symObjAddr: 0x3E8F88, symBinAddr: 0x100076B98, symSize: 0x0 }
  - { offsetInCU: 0x10E1E, offset: 0x54B91, size: 0x8, addend: 0x0, symName: __ZN4edit3icu13ROOT_COLLATOR17h485a90f2ce1f67baE.1, symObjAddr: 0x3E8F90, symBinAddr: 0x100076BA0, symSize: 0x0 }
  - { offsetInCU: 0x11131, offset: 0x54EA4, size: 0x8, addend: 0x0, symName: __ZN4edit3icu12ROOT_CASEMAP17h67a68acd94ef503bE.0, symObjAddr: 0x3E8F98, symBinAddr: 0x100076BA8, symSize: 0x0 }
  - { offsetInCU: 0x11143, offset: 0x54EB6, size: 0x8, addend: 0x0, symName: __ZN4edit3icu12ROOT_CASEMAP17h67a68acd94ef503bE.1, symObjAddr: 0x3E8FA0, symBinAddr: 0x100076BB0, symSize: 0x0 }
  - { offsetInCU: 0x11160, offset: 0x54ED3, size: 0x8, addend: 0x0, symName: __ZN4edit3icu17LIBRARY_FUNCTIONS17h144b5d6c47bb490eE, symObjAddr: 0x3E8FA8, symBinAddr: 0x100076BB8, symSize: 0x0 }
  - { offsetInCU: 0x11506, offset: 0x55279, size: 0x8, addend: 0x0, symName: '__ZN62_$LT$edit..icu..Converter$u20$as$u20$core..ops..drop..Drop$GT$4drop17h43b1bb1d49b90e11E', symObjAddr: 0x138C6, symBinAddr: 0x1000149B6, symSize: 0x3F }
  - { offsetInCU: 0x11557, offset: 0x552CA, size: 0x8, addend: 0x0, symName: __ZN4edit3icu14init_if_needed4load17h33dc79c447cd6ebcE, symObjAddr: 0x16E32, symBinAddr: 0x10005B152, symSize: 0x118 }
  - { offsetInCU: 0x1194B, offset: 0x556BE, size: 0x8, addend: 0x0, symName: '__ZN75_$LT$edit..icu..Regex$u20$as$u20$core..iter..traits..iterator..Iterator$GT$4next17h20f52494e97ab0b2E', symObjAddr: 0x18E15, symBinAddr: 0x100019CF5, symSize: 0x68 }
  - { offsetInCU: 0x11CD4, offset: 0x55A47, size: 0x8, addend: 0x0, symName: __ZN4edit3icu12utext_access17h6d717fab08fa79bbE, symObjAddr: 0x18F1B, symBinAddr: 0x100019DFB, symSize: 0x489 }
  - { offsetInCU: 0x1241B, offset: 0x5618E, size: 0x8, addend: 0x0, symName: __ZN4edit3icu11utext_clone17h7952efb221cddc69E, symObjAddr: 0x193A4, symBinAddr: 0x10001A284, symSize: 0x75 }
  - { offsetInCU: 0x12526, offset: 0x56299, size: 0x8, addend: 0x0, symName: __ZN4edit3icu19utext_native_length17h8814e330777698a9E, symObjAddr: 0x19419, symBinAddr: 0x10001A2F9, symSize: 0x11 }
  - { offsetInCU: 0x125CA, offset: 0x5633D, size: 0x8, addend: 0x0, symName: __ZN4edit3icu26utext_map_offset_to_native17h5e34e6516f21a3e9E, symObjAddr: 0x1942A, symBinAddr: 0x10001A30A, symSize: 0x49 }
  - { offsetInCU: 0x1265F, offset: 0x563D2, size: 0x8, addend: 0x0, symName: __ZN4edit3icu31utext_map_native_index_to_utf1617h6eded7dc57c02c4aE, symObjAddr: 0x19473, symBinAddr: 0x10001A353, symSize: 0x43 }
  - { offsetInCU: 0x126EA, offset: 0x5645D, size: 0x8, addend: 0x0, symName: __ZN4edit3icu9fold_case17hf659a743a1ac651fE, symObjAddr: 0x1F2F9, symBinAddr: 0x100020179, symSize: 0x238 }
  - { offsetInCU: 0x12CC3, offset: 0x56A36, size: 0x8, addend: 0x0, symName: __ZN4edit3icu23get_available_encodings17h280ffe0600f02060E, symObjAddr: 0x1F621, symBinAddr: 0x1000204A1, symSize: 0x387 }
  - { offsetInCU: 0x1387C, offset: 0x575EF, size: 0x8, addend: 0x0, symName: __ZN4edit3icu15compare_strings17hd12d3a725676f48bE, symObjAddr: 0x1F9A8, symBinAddr: 0x100020828, symSize: 0x12A }
  - { offsetInCU: 0x13C75, offset: 0x579E8, size: 0x8, addend: 0x0, symName: __ZN4edit3icu15compare_strings4init17ha8a7731f09c86052E, symObjAddr: 0x1FAD2, symBinAddr: 0x10005B2F2, symSize: 0x57 }
  - { offsetInCU: 0x13CFF, offset: 0x57A72, size: 0x8, addend: 0x0, symName: __ZN4edit4simd9lines_bwd18LINES_BWD_DISPATCH17h7808cdb5accc2703E, symObjAddr: 0x71310, symBinAddr: 0x100076068, symSize: 0x0 }
  - { offsetInCU: 0x13E70, offset: 0x57BE3, size: 0x8, addend: 0x0, symName: __ZN4edit4simd9lines_bwd14lines_bwd_avx217h5f8982b3a836bd88E, symObjAddr: 0x15EE9, symBinAddr: 0x100016ED9, symSize: 0x14A }
  - { offsetInCU: 0x144E4, offset: 0x58257, size: 0x8, addend: 0x0, symName: __ZN4edit4simd9lines_bwd18lines_bwd_dispatch17he5ac9892851b0caeE, symObjAddr: 0x16033, symBinAddr: 0x100017023, symSize: 0x62 }
  - { offsetInCU: 0x14637, offset: 0x583AA, size: 0x8, addend: 0x0, symName: __ZN4edit4simd9lines_bwd18lines_bwd_fallback17h5188f31ca88385fcE, symObjAddr: 0x16095, symBinAddr: 0x100017085, symSize: 0x27 }
  - { offsetInCU: 0x146B0, offset: 0x58423, size: 0x8, addend: 0x0, symName: __ZN4edit4simd9lines_fwd18LINES_FWD_DISPATCH17h9da52b9c56a887f0E, symObjAddr: 0x71318, symBinAddr: 0x100076070, symSize: 0x0 }
  - { offsetInCU: 0x1482F, offset: 0x585A2, size: 0x8, addend: 0x0, symName: __ZN4edit4simd9lines_fwd14lines_fwd_avx217he51aa8b78434d0f6E, symObjAddr: 0x14A4A, symBinAddr: 0x100015B3A, symSize: 0x189 }
  - { offsetInCU: 0x14F46, offset: 0x58CB9, size: 0x8, addend: 0x0, symName: __ZN4edit4simd9lines_fwd18lines_fwd_dispatch17h45a6e12e5cfeefd3E, symObjAddr: 0x14BD3, symBinAddr: 0x100015CC3, symSize: 0x62 }
  - { offsetInCU: 0x15099, offset: 0x58E0C, size: 0x8, addend: 0x0, symName: __ZN4edit4simd9lines_fwd18lines_fwd_fallback17h677b7053f992b75cE, symObjAddr: 0x14C35, symBinAddr: 0x100015D25, symSize: 0x44 }
  - { offsetInCU: 0x15112, offset: 0x58E85, size: 0x8, addend: 0x0, symName: __ZN4edit4simd7memchr216MEMCHR2_DISPATCH17h1bac03500110dca1E, symObjAddr: 0x71320, symBinAddr: 0x100076078, symSize: 0x0 }
  - { offsetInCU: 0x1521D, offset: 0x58F90, size: 0x8, addend: 0x0, symName: __ZN4edit4simd7memchr212memchr2_avx217hec17c63eff550475E, symObjAddr: 0x1A9AE, symBinAddr: 0x10001B88E, symSize: 0x76 }
  - { offsetInCU: 0x154D5, offset: 0x59248, size: 0x8, addend: 0x0, symName: __ZN4edit4simd7memchr216memchr2_dispatch17h5019aeae5250b56aE, symObjAddr: 0x1AA24, symBinAddr: 0x10001B904, symSize: 0x64 }
  - { offsetInCU: 0x15628, offset: 0x5939B, size: 0x8, addend: 0x0, symName: __ZN4edit4simd7memchr216memchr2_fallback17h0b4134e7354e5462E, symObjAddr: 0x1AA88, symBinAddr: 0x10001B968, symSize: 0x25 }
  - { offsetInCU: 0x156C4, offset: 0x59437, size: 0x8, addend: 0x0, symName: __ZN4edit4simd6memset15MEMSET_DISPATCH17hb74ebe69ba2d4157E, symObjAddr: 0x71328, symBinAddr: 0x100076080, symSize: 0x0 }
  - { offsetInCU: 0x156D2, offset: 0x59445, size: 0x8, addend: 0x0, symName: __ZN4edit4simd6memset15memset_dispatch17h5f7fe56dde843e72E, symObjAddr: 0x13086, symBinAddr: 0x1000142C6, symSize: 0x5D }
  - { offsetInCU: 0x15812, offset: 0x59585, size: 0x8, addend: 0x0, symName: __ZN4edit4simd6memset11memset_avx217h2776863de79b083eE, symObjAddr: 0x130E3, symBinAddr: 0x100014323, symSize: 0x94 }
  - { offsetInCU: 0x15FF6, offset: 0x59D69, size: 0x8, addend: 0x0, symName: __ZN4edit4simd6memset11memset_sse217h37abc2b39b6e92bbE, symObjAddr: 0x13177, symBinAddr: 0x1000143B7, symSize: 0x7C }
  - { offsetInCU: 0x16835, offset: 0x5A5A8, size: 0x8, addend: 0x0, symName: __ZN4edit3sys4unix5STATE17hf511b5081dcd1457E, symObjAddr: 0x71390, symBinAddr: 0x1000760E8, symSize: 0x0 }
  - { offsetInCU: 0x16DB1, offset: 0x5AB24, size: 0x8, addend: 0x0, symName: __ZN4edit3sys4unix16sigwinch_handler17h9b255f796d25f1cbE, symObjAddr: 0x2044C, symBinAddr: 0x10002103C, symSize: 0xD }
  - { offsetInCU: 0x16E44, offset: 0x5ABB7, size: 0x8, addend: 0x0, symName: __ZN4edit3sys4unix10read_stdin17hd254ab4691b315aaE, symObjAddr: 0x20459, symBinAddr: 0x10005B5A9, symSize: 0x73A }
  - { offsetInCU: 0x17D01, offset: 0x5BA74, size: 0x8, addend: 0x0, symName: __ZN4edit3sys4unix12write_stdout17h4e16b667ecf94550E, symObjAddr: 0x20B93, symBinAddr: 0x100021053, symSize: 0x94 }
  - { offsetInCU: 0x17D2F, offset: 0x5BAA2, size: 0x8, addend: 0x0, symName: __ZN4edit3sys4unix12write_stdout17h4e16b667ecf94550E, symObjAddr: 0x20B93, symBinAddr: 0x100021053, symSize: 0x94 }
  - { offsetInCU: 0x17E59, offset: 0x5BBCC, size: 0x8, addend: 0x0, symName: __ZN4edit3sys4unix7file_id17h4d3cb3e10b18ea87E, symObjAddr: 0x20C27, symBinAddr: 0x1000210E7, symSize: 0xFF }
  - { offsetInCU: 0x1820D, offset: 0x5BF80, size: 0x8, addend: 0x0, symName: __ZN4edit7unicode11measurement15AMBIGUOUS_WIDTH17h7d3a6afb09c29d08E.0, symObjAddr: 0x3E9058, symBinAddr: 0x100076C68, symSize: 0x0 }
  - { offsetInCU: 0x18264, offset: 0x5BFD7, size: 0x8, addend: 0x0, symName: __ZN4edit7unicode11measurement13strip_newline17hcf2744d1ac84b3ccE, symObjAddr: 0x1E90E, symBinAddr: 0x10001F78E, symSize: 0x52 }
  - { offsetInCU: 0x1882D, offset: 0x5C5A0, size: 0x8, addend: 0x0, symName: '__ZN60_$LT$edit..tui..Context$u20$as$u20$core..ops..drop..Drop$GT$4drop17hdb4c0baa6635e1e3E', symObjAddr: 0x23768, symBinAddr: 0x100023C28, symSize: 0x591 }
  - { offsetInCU: 0x195F1, offset: 0x5D364, size: 0x8, addend: 0x0, symName: __ZN4edit3tui7Context21textarea_handle_input4calc17h9ab6d5def1457ca6E, symObjAddr: 0x27350, symBinAddr: 0x100027810, symSize: 0x92 }
  - { offsetInCU: 0x19F69, offset: 0x5DCDC, size: 0x8, addend: 0x0, symName: __ZN4edit7helpers16vec_replace_impl17h2c08f78d53cad703E, symObjAddr: 0x1416F, symBinAddr: 0x10001525F, symSize: 0xEE }
  - { offsetInCU: 0x1A28E, offset: 0x5E001, size: 0x8, addend: 0x0, symName: __ZN4edit7helpers16vec_replace_impl17h4024fb9932fd5234E, symObjAddr: 0x145BA, symBinAddr: 0x1000156AA, symSize: 0xEE }
  - { offsetInCU: 0x1A566, offset: 0x5E2D9, size: 0x8, addend: 0x0, symName: __ZN4edit7helpers16file_read_uninit17h9d31f849809226c5E, symObjAddr: 0x16B6D, symBinAddr: 0x100017B5D, symSize: 0x5E }
  - { offsetInCU: 0x1A73E, offset: 0x5E4B1, size: 0x8, addend: 0x0, symName: '__ZN82_$LT$edit..helpers..MetricFormatter$LT$usize$GT$$u20$as$u20$core..fmt..Display$GT$3fmt17hcec78a6e2ab08be5E', symObjAddr: 0x1F531, symBinAddr: 0x1000203B1, symSize: 0xF0 }
  - { offsetInCU: 0x1ABCA, offset: 0x5E93D, size: 0x8, addend: 0x0, symName: __ZN4edit5fuzzy9map_chars17h08a6e5d79025dda7E, symObjAddr: 0x1F102, symBinAddr: 0x10001FF82, symSize: 0x1F7 }
  - { offsetInCU: 0x1B70B, offset: 0x5F47E, size: 0x8, addend: 0x0, symName: __ZN4edit5oklab11oklab_blend17h8a3b72008c9c19f2E, symObjAddr: 0x1C775, symBinAddr: 0x10001D655, symSize: 0x314 }
  - { offsetInCU: 0x1BAC2, offset: 0x5F835, size: 0x8, addend: 0x0, symName: __ZN4edit5oklab13srgb_to_oklab17h91d5e9a39fe05153E, symObjAddr: 0x1CF85, symBinAddr: 0x10001DE05, symSize: 0x1D8 }
  - { offsetInCU: 0x1BDE8, offset: 0x5FB5B, size: 0x8, addend: 0x0, symName: '__ZN69_$LT$$RF$$u5b$u8$u5d$$u20$as$u20$edit..document..ReadableDocument$GT$12read_forward17hcec47b0793d00f4bE', symObjAddr: 0x1CF57, symBinAddr: 0x10001DDD7, symSize: 0x1A }
  - { offsetInCU: 0x1BF35, offset: 0x5FCA8, size: 0x8, addend: 0x0, symName: '__ZN69_$LT$$RF$$u5b$u8$u5d$$u20$as$u20$edit..document..ReadableDocument$GT$13read_backward17hcf2b24241e574fb8E', symObjAddr: 0x1CF71, symBinAddr: 0x10001DDF1, symSize: 0x14 }
  - { offsetInCU: 0x1BFB7, offset: 0x5FD2A, size: 0x8, addend: 0x0, symName: '__ZN75_$LT$alloc..string..String$u20$as$u20$edit..document..WriteableDocument$GT$7replace17h36d2bca3253c34bfE', symObjAddr: 0x1E960, symBinAddr: 0x10001F7E0, symSize: 0x73 }
  - { offsetInCU: 0x1C1C6, offset: 0x5FF39, size: 0x8, addend: 0x0, symName: '__ZN71_$LT$std..path..PathBuf$u20$as$u20$edit..document..ReadableDocument$GT$12read_forward17h246365a3ffa61fe4E', symObjAddr: 0x1E9D3, symBinAddr: 0x10001F853, symSize: 0x1B }
  - { offsetInCU: 0x1C3DC, offset: 0x6014F, size: 0x8, addend: 0x0, symName: '__ZN71_$LT$std..path..PathBuf$u20$as$u20$edit..document..ReadableDocument$GT$13read_backward17h153a3cee987ce70dE', symObjAddr: 0x1E9EE, symBinAddr: 0x10001F86E, symSize: 0x15 }
  - { offsetInCU: 0x1C585, offset: 0x602F8, size: 0x8, addend: 0x0, symName: '__ZN72_$LT$std..path..PathBuf$u20$as$u20$edit..document..WriteableDocument$GT$7replace17h63eb460eb1938d34E', symObjAddr: 0x1EA03, symBinAddr: 0x10001F883, symSize: 0x5B }
  - { offsetInCU: 0x1C714, offset: 0x60487, size: 0x8, addend: 0x0, symName: __ZN4edit4path9normalize17h63950f64b27b98d0E, symObjAddr: 0x202A8, symBinAddr: 0x100020E98, symSize: 0x1A4 }
  - { offsetInCU: 0x1D4C2, offset: 0x61235, size: 0x8, addend: 0x0, symName: '__ZN132_$LT$alloc..vec..Vec$LT$T$C$A$GT$$u20$as$u20$alloc..vec..spec_extend..SpecExtend$LT$$RF$T$C$core..slice..iter..Iter$LT$T$GT$$GT$$GT$11spec_extend17hc97c941fa5f09352E', symObjAddr: 0x131F3, symBinAddr: 0x100014433, symSize: 0x67 }
  - { offsetInCU: 0x1E325, offset: 0x62098, size: 0x8, addend: 0x0, symName: __ZN5alloc3vec12from_elem_in17h4f953ab4489b324aE, symObjAddr: 0x1396D, symBinAddr: 0x100014A5D, symSize: 0xC0 }
  - { offsetInCU: 0x1E79E, offset: 0x62511, size: 0x8, addend: 0x0, symName: __ZN5alloc3vec9from_elem17h7c4ff39828ccac37E, symObjAddr: 0x13BD1, symBinAddr: 0x100014CC1, symSize: 0x63 }
  - { offsetInCU: 0x1FAF2, offset: 0x63865, size: 0x8, addend: 0x0, symName: '__ZN5alloc7raw_vec20RawVecInner$LT$A$GT$7reserve21do_reserve_and_handle17h3088484a673745f2E', symObjAddr: 0x1325A, symBinAddr: 0x10005AECA, symSize: 0x2F }
  - { offsetInCU: 0x1FBCE, offset: 0x63941, size: 0x8, addend: 0x0, symName: __ZN5alloc7raw_vec11finish_grow17h68d46265ba7586d3E, symObjAddr: 0x13369, symBinAddr: 0x10005AEF9, symSize: 0xD2 }
  - { offsetInCU: 0x203DF, offset: 0x64152, size: 0x8, addend: 0x0, symName: '__ZN98_$LT$alloc..collections..linked_list..LinkedList$LT$T$C$A$GT$$u20$as$u20$core..ops..drop..Drop$GT$4drop17hfb5b45cbc1c8e70bE', symObjAddr: 0x1380A, symBinAddr: 0x1000148FA, symSize: 0x4F }
  - { offsetInCU: 0x20911, offset: 0x64684, size: 0x8, addend: 0x0, symName: '__ZN66_$LT$alloc..borrow..Cow$LT$B$GT$$u20$as$u20$core..fmt..Display$GT$3fmt17hf11efde6e05f58d4E', symObjAddr: 0x13DC6, symBinAddr: 0x100014EB6, symSize: 0x18 }
  - { offsetInCU: 0x21AC6, offset: 0x65839, size: 0x8, addend: 0x0, symName: __ZN3std2io5Write9write_all17heddadabeddbc28f9E, symObjAddr: 0x1350B, symBinAddr: 0x1000145FB, symSize: 0xA2 }
  - { offsetInCU: 0x25020, offset: 0x68D93, size: 0x8, addend: 0x0, symName: '__ZN5alloc7raw_vec20RawVecInner$LT$A$GT$14grow_amortized17h9c6ac47c288b5f0fE', symObjAddr: 0x13289, symBinAddr: 0x1000144A9, symSize: 0xE0 }
  - { offsetInCU: 0x25429, offset: 0x6919C, size: 0x8, addend: 0x0, symName: __ZN4edit5arena7release5Arena14alloc_raw_bump17hc2aab98c2b3cc122E, symObjAddr: 0x1346D, symBinAddr: 0x10005AFCD, symSize: 0x67 }
  - { offsetInCU: 0x25878, offset: 0x695EB, size: 0x8, addend: 0x0, symName: '__ZN5alloc7raw_vec19RawVec$LT$T$C$A$GT$8grow_one17h2a66554f16987d72E', symObjAddr: 0x13799, symBinAddr: 0x100014889, symSize: 0x45 }
  - { offsetInCU: 0x25ABD, offset: 0x69830, size: 0x8, addend: 0x0, symName: '__ZN5alloc2rc15Rc$LT$T$C$A$GT$9drop_slow17h900f7b153b6207f6E', symObjAddr: 0x13905, symBinAddr: 0x1000149F5, symSize: 0x5E }
  - { offsetInCU: 0x25FA0, offset: 0x69D13, size: 0x8, addend: 0x0, symName: '__ZN5alloc7raw_vec20RawVecInner$LT$A$GT$13reserve_exact17hcfd6fea8b2782591E', symObjAddr: 0x13A2D, symBinAddr: 0x100014B1D, symSize: 0xA8 }
  - { offsetInCU: 0x26462, offset: 0x6A1D5, size: 0x8, addend: 0x0, symName: '__ZN5alloc3vec16Vec$LT$T$C$A$GT$14extend_trusted17h9d6db42623327118E', symObjAddr: 0x13AD5, symBinAddr: 0x100014BC5, symSize: 0x92 }
  - { offsetInCU: 0x2685E, offset: 0x6A5D1, size: 0x8, addend: 0x0, symName: '__ZN5alloc3vec16Vec$LT$T$C$A$GT$14extend_trusted17hae80a1f632a8dc04E', symObjAddr: 0x13B67, symBinAddr: 0x100014C57, symSize: 0x6A }
  - { offsetInCU: 0x26BE0, offset: 0x6A953, size: 0x8, addend: 0x0, symName: '__ZN5alloc7raw_vec19RawVec$LT$T$C$A$GT$8grow_one17h05684ae1c0f7e98cE', symObjAddr: 0x13C34, symBinAddr: 0x100014D24, symSize: 0x42 }
  - { offsetInCU: 0x26C8C, offset: 0x6A9FF, size: 0x8, addend: 0x0, symName: '__ZN5alloc7raw_vec19RawVec$LT$T$C$A$GT$8grow_one17h0f5a857272b99c41E', symObjAddr: 0x13C76, symBinAddr: 0x100014D66, symSize: 0x42 }
  - { offsetInCU: 0x26D38, offset: 0x6AAAB, size: 0x8, addend: 0x0, symName: '__ZN5alloc7raw_vec19RawVec$LT$T$C$A$GT$8grow_one17h20f3fc72d87fc999E', symObjAddr: 0x13CB8, symBinAddr: 0x100014DA8, symSize: 0x45 }
  - { offsetInCU: 0x26DD7, offset: 0x6AB4A, size: 0x8, addend: 0x0, symName: '__ZN5alloc7raw_vec19RawVec$LT$T$C$A$GT$8grow_one17ha7a0e16e7f34cff4E', symObjAddr: 0x13CFD, symBinAddr: 0x100014DED, symSize: 0x45 }
  - { offsetInCU: 0x26E76, offset: 0x6ABE9, size: 0x8, addend: 0x0, symName: '__ZN5alloc7raw_vec19RawVec$LT$T$C$A$GT$8grow_one17hccad312e1270169aE', symObjAddr: 0x13D42, symBinAddr: 0x100014E32, symSize: 0x42 }
  - { offsetInCU: 0x26F15, offset: 0x6AC88, size: 0x8, addend: 0x0, symName: '__ZN5alloc7raw_vec19RawVec$LT$T$C$A$GT$8grow_one17he342df59660e2a6eE', symObjAddr: 0x13D84, symBinAddr: 0x100014E74, symSize: 0x42 }
  - { offsetInCU: 0x26F7B, offset: 0x6ACEE, size: 0x8, addend: 0x0, symName: __ZN4edit5arena7release5Arena3new17h0f52b7d71f8969a7E, symObjAddr: 0x13DDE, symBinAddr: 0x100014ECE, symSize: 0x6C }
  - { offsetInCU: 0x2705D, offset: 0x6ADD0, size: 0x8, addend: 0x0, symName: __ZN4edit5arena7release5Arena12alloc_uninit17h4eb2f7d4b8096d4bE, symObjAddr: 0x13E4A, symBinAddr: 0x100014F3A, symSize: 0x5E }
  - { offsetInCU: 0x271B3, offset: 0x6AF26, size: 0x8, addend: 0x0, symName: __ZN4edit5arena7release5Arena18alloc_uninit_slice17h0d40b18d6e55c1eaE, symObjAddr: 0x13EC6, symBinAddr: 0x100014FB6, symSize: 0x71 }
  - { offsetInCU: 0x27315, offset: 0x6B088, size: 0x8, addend: 0x0, symName: __ZN4edit5arena6string11ArenaString15from_utf8_lossy17h234bebe65f06c6cbE, symObjAddr: 0x13F37, symBinAddr: 0x100015027, symSize: 0x13D }
  - { offsetInCU: 0x277B8, offset: 0x6B52B, size: 0x8, addend: 0x0, symName: __ZN4edit5arena6string11ArenaString11push_repeat17h3fa19d534cb8cceaE, symObjAddr: 0x14074, symBinAddr: 0x100015164, symSize: 0xFB }
  - { offsetInCU: 0x2806F, offset: 0x6BDE2, size: 0x8, addend: 0x0, symName: __ZN4edit6buffer10gap_buffer9GapBuffer12allocate_gap17hef2e376209b3a103E, symObjAddr: 0x1425D, symBinAddr: 0x10001534D, symSize: 0x22C }
  - { offsetInCU: 0x28694, offset: 0x6C407, size: 0x8, addend: 0x0, symName: __ZN4edit6buffer10gap_buffer9GapBuffer10commit_gap17h35ac70a273640bf5E, symObjAddr: 0x14489, symBinAddr: 0x100015579, symSize: 0x32 }
  - { offsetInCU: 0x286C7, offset: 0x6C43A, size: 0x8, addend: 0x0, symName: __ZN4edit6buffer10gap_buffer9GapBuffer11extract_raw17h6b733fb86ecbfeefE, symObjAddr: 0x144BB, symBinAddr: 0x1000155AB, symSize: 0xFF }
  - { offsetInCU: 0x28A4B, offset: 0x6C7BE, size: 0x8, addend: 0x0, symName: __ZN4edit6buffer10TextBuffer6new_rc17h07c642d3f554ff67E, symObjAddr: 0x14848, symBinAddr: 0x100015938, symSize: 0x202 }
  - { offsetInCU: 0x28CA4, offset: 0x6CA17, size: 0x8, addend: 0x0, symName: __ZN4edit6buffer10TextBuffer15reflow_internal17h452ad25389b5a53dE, symObjAddr: 0x14C79, symBinAddr: 0x100015D69, symSize: 0x280 }
  - { offsetInCU: 0x28E9B, offset: 0x6CC0E, size: 0x8, addend: 0x0, symName: __ZN4edit6buffer10TextBuffer15goto_line_start17hb8f086eb6b47cceaE, symObjAddr: 0x14EF9, symBinAddr: 0x100015FE9, symSize: 0x330 }
  - { offsetInCU: 0x29460, offset: 0x6D1D3, size: 0x8, addend: 0x0, symName: __ZN4edit6buffer10TextBuffer31cursor_move_to_logical_internal17h9787ac6ab9f28ae8E, symObjAddr: 0x15229, symBinAddr: 0x100016319, symSize: 0x183 }
  - { offsetInCU: 0x2982A, offset: 0x6D59D, size: 0x8, addend: 0x0, symName: __ZN4edit7unicode11measurement17MeasurementConfig15measure_forward17hb0e576c00936b89eE, symObjAddr: 0x153AC, symBinAddr: 0x10001649C, symSize: 0xA35 }
  - { offsetInCU: 0x2A382, offset: 0x6E0F5, size: 0x8, addend: 0x0, symName: __ZN4edit7unicode4utf89Utf8Chars9next_slow17h3144fede4d5e127dE, symObjAddr: 0x15DE1, symBinAddr: 0x10005B041, symSize: 0x108 }
  - { offsetInCU: 0x2A553, offset: 0x6E2C6, size: 0x8, addend: 0x0, symName: __ZN4edit6buffer10TextBuffer25recalc_after_content_swap17h8549c8c9a4ac1a76E, symObjAddr: 0x160BC, symBinAddr: 0x1000170AC, symSize: 0x103 }
  - { offsetInCU: 0x2AD98, offset: 0x6EB0B, size: 0x8, addend: 0x0, symName: __ZN4edit6buffer10TextBuffer9read_file17h1c606b146860dd73E, symObjAddr: 0x161BF, symBinAddr: 0x1000171AF, symSize: 0x9AE }
  - { offsetInCU: 0x2CB1D, offset: 0x70890, size: 0x8, addend: 0x0, symName: __ZN4edit3icu9Converter3new17h2897a831952c6021E, symObjAddr: 0x16BCB, symBinAddr: 0x100017BBB, symSize: 0x147 }
  - { offsetInCU: 0x2D057, offset: 0x70DCA, size: 0x8, addend: 0x0, symName: __ZN4edit3icu9Converter7convert17h43ecc8d87016e823E, symObjAddr: 0x16D12, symBinAddr: 0x100017D02, symSize: 0x120 }
  - { offsetInCU: 0x2D5C9, offset: 0x7133C, size: 0x8, addend: 0x0, symName: __ZN4edit3icu9Converter10append_nul17h62a319e29b754453E, symObjAddr: 0x16F4A, symBinAddr: 0x100017E2A, symSize: 0xBE }
  - { offsetInCU: 0x2D6BC, offset: 0x7142F, size: 0x8, addend: 0x0, symName: __ZN4edit6buffer10TextBuffer30cursor_move_to_offset_internal17h8c16a7f553893a46E, symObjAddr: 0x17026, symBinAddr: 0x100017F06, symSize: 0x1FD }
  - { offsetInCU: 0x2D7CC, offset: 0x7153F, size: 0x8, addend: 0x0, symName: __ZN4edit6buffer10TextBuffer24set_cursor_for_selection17hb71b2ab1207a3d54E, symObjAddr: 0x17223, symBinAddr: 0x100018103, symSize: 0xAF }
  - { offsetInCU: 0x2D88E, offset: 0x71601, size: 0x8, addend: 0x0, symName: __ZN4edit6buffer10TextBuffer23selection_update_visual17h66ff75eac72c51d7E, symObjAddr: 0x172D2, symBinAddr: 0x1000181B2, symSize: 0x87 }
  - { offsetInCU: 0x2D8E1, offset: 0x71654, size: 0x8, addend: 0x0, symName: __ZN4edit6buffer10TextBuffer30cursor_move_to_visual_internal17hf8462fc9895de2ddE, symObjAddr: 0x17359, symBinAddr: 0x100018239, symSize: 0x232 }
  - { offsetInCU: 0x2DA5C, offset: 0x717CF, size: 0x8, addend: 0x0, symName: __ZN4edit6buffer10TextBuffer24selection_update_logical17hfa4319da7d35038eE, symObjAddr: 0x1758B, symBinAddr: 0x10001846B, symSize: 0x87 }
  - { offsetInCU: 0x2DA91, offset: 0x71804, size: 0x8, addend: 0x0, symName: __ZN4edit6buffer10TextBuffer22selection_update_delta17h8270ff9876d0b0cfE, symObjAddr: 0x17612, symBinAddr: 0x1000184F2, symSize: 0x86 }
  - { offsetInCU: 0x2DB0A, offset: 0x7187D, size: 0x8, addend: 0x0, symName: __ZN4edit6buffer10TextBuffer26cursor_move_delta_internal17h7f634d54556d8e35E, symObjAddr: 0x17698, symBinAddr: 0x100018578, symSize: 0x58C }
  - { offsetInCU: 0x2E05E, offset: 0x71DD1, size: 0x8, addend: 0x0, symName: __ZN4edit6buffer10TextBuffer11select_word17hd126043475dff3a8E, symObjAddr: 0x17C24, symBinAddr: 0x100018B04, symSize: 0x2DD }
  - { offsetInCU: 0x2E614, offset: 0x72387, size: 0x8, addend: 0x0, symName: __ZN4edit6buffer10TextBuffer11select_line17hcb939b672c391e1aE, symObjAddr: 0x17F01, symBinAddr: 0x100018DE1, symSize: 0x17A }
  - { offsetInCU: 0x2E760, offset: 0x724D3, size: 0x8, addend: 0x0, symName: __ZN4edit6buffer10TextBuffer10select_all17h1002610c857ae6c0E, symObjAddr: 0x1807B, symBinAddr: 0x100018F5B, symSize: 0xD3 }
  - { offsetInCU: 0x2E9A8, offset: 0x7271B, size: 0x8, addend: 0x0, symName: __ZN4edit6buffer10TextBuffer15find_and_select17hb7e3174dfca8553cE, symObjAddr: 0x1814E, symBinAddr: 0x10001902E, symSize: 0x345 }
  - { offsetInCU: 0x2F565, offset: 0x732D8, size: 0x8, addend: 0x0, symName: __ZN4edit6buffer10TextBuffer21find_construct_search17h0e8954e5abc23417E, symObjAddr: 0x18493, symBinAddr: 0x100019373, symSize: 0x694 }
  - { offsetInCU: 0x30740, offset: 0x744B3, size: 0x8, addend: 0x0, symName: __ZN4edit6buffer10TextBuffer16find_select_next17hf2a19cb700444226E, symObjAddr: 0x18B27, symBinAddr: 0x100019A07, symSize: 0x2AF }
  - { offsetInCU: 0x30A5A, offset: 0x747CD, size: 0x8, addend: 0x0, symName: __ZN4edit3icu5Regex5reset17h4eb00e805c66c0b8E, symObjAddr: 0x18DD6, symBinAddr: 0x100019CB6, symSize: 0x3F }
  - { offsetInCU: 0x30AD1, offset: 0x74844, size: 0x8, addend: 0x0, symName: __ZN4edit3icu5Regex5group17h12972f4a90309f85E, symObjAddr: 0x18E7D, symBinAddr: 0x100019D5D, symSize: 0x9E }
  - { offsetInCU: 0x30F3B, offset: 0x74CAE, size: 0x8, addend: 0x0, symName: __ZN4edit6buffer10TextBuffer22find_parse_replacement17h0ebcdffef1cf9056E, symObjAddr: 0x194B6, symBinAddr: 0x10001A396, symSize: 0x3D2 }
  - { offsetInCU: 0x319C0, offset: 0x75733, size: 0x8, addend: 0x0, symName: __ZN4edit6buffer10TextBuffer21find_fill_replacement17hd7bbe6f6d400e21aE, symObjAddr: 0x19888, symBinAddr: 0x10001A768, symSize: 0xF8 }
  - { offsetInCU: 0x31D81, offset: 0x75AF4, size: 0x8, addend: 0x0, symName: __ZN4edit6buffer10TextBuffer5write17h9b74a4ca4107635eE, symObjAddr: 0x19980, symBinAddr: 0x10001A860, symSize: 0x718 }
  - { offsetInCU: 0x32A17, offset: 0x7678A, size: 0x8, addend: 0x0, symName: __ZN4edit6buffer10TextBuffer24selection_range_internal17h9ac62c20277e3515E, symObjAddr: 0x1A098, symBinAddr: 0x10001AF78, symSize: 0x1F6 }
  - { offsetInCU: 0x32DEF, offset: 0x76B62, size: 0x8, addend: 0x0, symName: __ZN4edit6buffer10TextBuffer10edit_begin17h998018e3491834bfE, symObjAddr: 0x1A28E, symBinAddr: 0x10001B16E, symSize: 0x3FE }
  - { offsetInCU: 0x33659, offset: 0x773CC, size: 0x8, addend: 0x0, symName: __ZN4edit6buffer10TextBuffer11edit_delete17hae4c9a078bd02a81E, symObjAddr: 0x1A68C, symBinAddr: 0x10001B56C, symSize: 0xC2 }
  - { offsetInCU: 0x33892, offset: 0x77605, size: 0x8, addend: 0x0, symName: __ZN4edit6buffer10TextBuffer8edit_end17h5d480ab21e8d68bcE, symObjAddr: 0x1A74E, symBinAddr: 0x10001B62E, symSize: 0x260 }
  - { offsetInCU: 0x33A9D, offset: 0x77810, size: 0x8, addend: 0x0, symName: __ZN4edit6buffer10TextBuffer10edit_write17h0a04d4215bab3defE, symObjAddr: 0x1AAAD, symBinAddr: 0x10001B98D, symSize: 0x16B }
  - { offsetInCU: 0x33CF4, offset: 0x77A67, size: 0x8, addend: 0x0, symName: __ZN4edit6buffer10TextBuffer22cursor_move_to_logical17h6c0f4f37744e264cE, symObjAddr: 0x1AC18, symBinAddr: 0x10001BAF8, symSize: 0xDC }
  - { offsetInCU: 0x33D8E, offset: 0x77B01, size: 0x8, addend: 0x0, symName: __ZN4edit6buffer10TextBuffer21cursor_move_to_visual17h5b7e473d84a3b662E, symObjAddr: 0x1ACF4, symBinAddr: 0x10001BBD4, symSize: 0xDC }
  - { offsetInCU: 0x33E36, offset: 0x77BA9, size: 0x8, addend: 0x0, symName: __ZN4edit6buffer10TextBuffer17cursor_move_delta17h1d484e693363b230E, symObjAddr: 0x1ADD0, symBinAddr: 0x10001BCB0, symSize: 0xDB }
  - { offsetInCU: 0x3419F, offset: 0x77F12, size: 0x8, addend: 0x0, symName: __ZN4edit6buffer10TextBuffer6render17h632b728596daa53eE, symObjAddr: 0x1AEAB, symBinAddr: 0x10001BD8B, symSize: 0x16B0 }
  - { offsetInCU: 0x36150, offset: 0x79EC3, size: 0x8, addend: 0x0, symName: __ZN4edit11framebuffer6Bitmap5blend17h790905d762d79e1eE, symObjAddr: 0x1C55B, symBinAddr: 0x10001D43B, symSize: 0x21A }
  - { offsetInCU: 0x3685D, offset: 0x7A5D0, size: 0x8, addend: 0x0, symName: __ZN4edit11framebuffer11Framebuffer15contrasted_slow17h3b276d64e1580be3E, symObjAddr: 0x1CA89, symBinAddr: 0x10005B279, symSize: 0x6A }
  - { offsetInCU: 0x36C0E, offset: 0x7A981, size: 0x8, addend: 0x0, symName: __ZN4edit11framebuffer11Framebuffer12replace_text17h314a8aae222ae0b7E, symObjAddr: 0x1CAF3, symBinAddr: 0x10001D973, symSize: 0x464 }
  - { offsetInCU: 0x3741B, offset: 0x7B18E, size: 0x8, addend: 0x0, symName: __ZN4edit6buffer10TextBuffer3cut17h02f1f302d0927392E, symObjAddr: 0x1D15D, symBinAddr: 0x10001DFDD, symSize: 0x45 }
  - { offsetInCU: 0x37503, offset: 0x7B276, size: 0x8, addend: 0x0, symName: __ZN4edit6buffer10TextBuffer17extract_selection17h4f036cd76416ee06E, symObjAddr: 0x1D1A2, symBinAddr: 0x10001E022, symSize: 0x18D }
  - { offsetInCU: 0x3771C, offset: 0x7B48F, size: 0x8, addend: 0x0, symName: __ZN4edit9clipboard9Clipboard5write17h0135f4a98589de89E, symObjAddr: 0x1D32F, symBinAddr: 0x10001E1AF, symSize: 0x52 }
  - { offsetInCU: 0x377E1, offset: 0x7B554, size: 0x8, addend: 0x0, symName: __ZN4edit6buffer10TextBuffer4copy17heb792025f190f042E, symObjAddr: 0x1D381, symBinAddr: 0x10001E201, symSize: 0x42 }
  - { offsetInCU: 0x378CA, offset: 0x7B63D, size: 0x8, addend: 0x0, symName: __ZN4edit6buffer10TextBuffer5paste17h027ccbb11f6bf880E, symObjAddr: 0x1D3C3, symBinAddr: 0x10001E243, symSize: 0x1FE }
  - { offsetInCU: 0x37AA9, offset: 0x7B81C, size: 0x8, addend: 0x0, symName: __ZN4edit6buffer10TextBuffer6delete17h6d2c2a48abc977dfE, symObjAddr: 0x1D5C1, symBinAddr: 0x10001E441, symSize: 0x269 }
  - { offsetInCU: 0x37CDA, offset: 0x7BA4D, size: 0x8, addend: 0x0, symName: __ZN4edit6buffer10TextBuffer22indent_end_logical_pos17h8fe91af883ffb211E, symObjAddr: 0x1D82A, symBinAddr: 0x10001E6AA, symSize: 0x96 }
  - { offsetInCU: 0x37D39, offset: 0x7BAAC, size: 0x8, addend: 0x0, symName: __ZN4edit6buffer10TextBuffer23measure_indent_internal17h4fe56899b4fd3a63E, symObjAddr: 0x1D8C0, symBinAddr: 0x10001E740, symSize: 0xD1 }
  - { offsetInCU: 0x38032, offset: 0x7BDA5, size: 0x8, addend: 0x0, symName: __ZN4edit6buffer10TextBuffer13indent_change17hc08597119a7cf750E, symObjAddr: 0x1D991, symBinAddr: 0x10001E811, symSize: 0x557 }
  - { offsetInCU: 0x38593, offset: 0x7C306, size: 0x8, addend: 0x0, symName: __ZN4edit6buffer10TextBuffer19move_selected_lines17hf31976cbdcd7b3bdE, symObjAddr: 0x1DEE8, symBinAddr: 0x10001ED68, symSize: 0x4B0 }
  - { offsetInCU: 0x38F0B, offset: 0x7CC7E, size: 0x8, addend: 0x0, symName: __ZN4edit6buffer10TextBuffer9undo_redo17h07e8d91095bc1f3dE, symObjAddr: 0x1E398, symBinAddr: 0x10001F218, symSize: 0x576 }
  - { offsetInCU: 0x39D36, offset: 0x7DAA9, size: 0x8, addend: 0x0, symName: __ZN4edit11framebuffer11Framebuffer14draw_scrollbar17hcea6045220000684E, symObjAddr: 0x1EA5E, symBinAddr: 0x10001F8DE, symSize: 0x33D }
  - { offsetInCU: 0x3A5D4, offset: 0x7E347, size: 0x8, addend: 0x0, symName: __ZN4edit11framebuffer11Framebuffer12replace_attr17h15afde04f75cf84cE, symObjAddr: 0x1ED9B, symBinAddr: 0x10001FC1B, symSize: 0x158 }
  - { offsetInCU: 0x3AA63, offset: 0x7E7D6, size: 0x8, addend: 0x0, symName: __ZN4edit11framebuffer6Bitmap4iter17h492cdd0bf8e79ee4E, symObjAddr: 0x1EEF3, symBinAddr: 0x10001FD73, symSize: 0x70 }
  - { offsetInCU: 0x3AC3D, offset: 0x7E9B0, size: 0x8, addend: 0x0, symName: __ZN4edit11framebuffer15AttributeBuffer4iter17hf243b8e0270bd6d3E, symObjAddr: 0x1EF63, symBinAddr: 0x10001FDE3, symSize: 0x6F }
  - { offsetInCU: 0x3AD7C, offset: 0x7EAEF, size: 0x8, addend: 0x0, symName: __ZN4edit11framebuffer11Framebuffer12format_color17h1b95550b441a99bcE, symObjAddr: 0x1EFD2, symBinAddr: 0x10001FE52, symSize: 0x130 }
  - { offsetInCU: 0x3B6E3, offset: 0x7F456, size: 0x8, addend: 0x0, symName: __ZN4edit5input6Stream22handle_bracketed_paste17h7bc00ad28dc86326E, symObjAddr: 0x1FB29, symBinAddr: 0x10005B349, symSize: 0x104 }
  - { offsetInCU: 0x3B914, offset: 0x7F687, size: 0x8, addend: 0x0, symName: __ZN4edit2vt6Stream4next17h679e1223010acaceE, symObjAddr: 0x1FC2D, symBinAddr: 0x10002095D, symSize: 0x4DF }
  - { offsetInCU: 0x3BE93, offset: 0x7FC06, size: 0x8, addend: 0x0, symName: __ZN4edit5input6Stream27parse_x10_mouse_coordinates17hc6673acc52d48401E, symObjAddr: 0x2010C, symBinAddr: 0x10005B45C, symSize: 0x143 }
  - { offsetInCU: 0x3C193, offset: 0x7FF06, size: 0x8, addend: 0x0, symName: __ZN4edit2vt6Stream11decode_next17h9abe15559fa8cef7E, symObjAddr: 0x2024F, symBinAddr: 0x100020E3F, symSize: 0x59 }
  - { offsetInCU: 0x3CADC, offset: 0x8084F, size: 0x8, addend: 0x0, symName: __ZN4edit3tui3Tui14create_context17h01054971c9f062e2E, symObjAddr: 0x20D26, symBinAddr: 0x1000211E6, symSize: 0x952 }
  - { offsetInCU: 0x3DA1A, offset: 0x8178D, size: 0x8, addend: 0x0, symName: __ZN4edit3tui7NodeMap3get17h510585d32fe7bbccE, symObjAddr: 0x21678, symBinAddr: 0x100021B38, symSize: 0x50 }
  - { offsetInCU: 0x3DAF1, offset: 0x81864, size: 0x8, addend: 0x0, symName: __ZN4edit3tui3Tui15build_node_path17h9e34bdcffb0c9935E, symObjAddr: 0x216C8, symBinAddr: 0x100021B88, symSize: 0xCF }
  - { offsetInCU: 0x3E90F, offset: 0x82682, size: 0x8, addend: 0x0, symName: __ZN4edit3tui3Tui6render17h1a521d1b430c3bb9E, symObjAddr: 0x21797, symBinAddr: 0x100021C57, symSize: 0x115F }
  - { offsetInCU: 0x415B8, offset: 0x8532B, size: 0x8, addend: 0x0, symName: __ZN4edit3tui3Tui11render_node17hf84a28ddfafa9af0E, symObjAddr: 0x228F6, symBinAddr: 0x100022DB6, symSize: 0xE72 }
  - { offsetInCU: 0x44098, offset: 0x87E0B, size: 0x8, addend: 0x0, symName: __ZN4edit3tui7Context9block_end17he6f7d6148ec412d8E, symObjAddr: 0x23CF9, symBinAddr: 0x1000241B9, symSize: 0x18B }
  - { offsetInCU: 0x44420, offset: 0x88193, size: 0x8, addend: 0x0, symName: __ZN4edit3tui7Context15steal_focus_for17haebd641e9751f827E, symObjAddr: 0x23E84, symBinAddr: 0x100024344, symSize: 0x52 }
  - { offsetInCU: 0x4460D, offset: 0x88380, size: 0x8, addend: 0x0, symName: __ZN4edit3tui3Tui18pop_focusable_node17h7cd31da62451ba12E, symObjAddr: 0x23ED6, symBinAddr: 0x100024396, symSize: 0x146 }
  - { offsetInCU: 0x44BF0, offset: 0x88963, size: 0x8, addend: 0x0, symName: __ZN4edit3tui4Node22compute_intrinsic_size17ha62f8a3d47aad89dE, symObjAddr: 0x2401C, symBinAddr: 0x1000244DC, symSize: 0x24B }
  - { offsetInCU: 0x4538E, offset: 0x89101, size: 0x8, addend: 0x0, symName: __ZN4edit3tui4Node18intrinsic_to_outer17hfa1a25d08bb3e94dE, symObjAddr: 0x24267, symBinAddr: 0x100024727, symSize: 0x50 }
  - { offsetInCU: 0x4543C, offset: 0x891AF, size: 0x8, addend: 0x0, symName: __ZN4edit3tui4Node15layout_children17hd5d60613107a32acE, symObjAddr: 0x242B7, symBinAddr: 0x100024777, symSize: 0x89B }
  - { offsetInCU: 0x4693F, offset: 0x8A6B2, size: 0x8, addend: 0x0, symName: __ZN4edit3tui7Context11block_begin17hf4c828c6f989b227E, symObjAddr: 0x24B52, symBinAddr: 0x100025012, symSize: 0x24B }
  - { offsetInCU: 0x47231, offset: 0x8AFA4, size: 0x8, addend: 0x0, symName: __ZN4edit3tui7Context22focus_on_first_present17h853b309209416c9aE, symObjAddr: 0x24D9D, symBinAddr: 0x10002525D, symSize: 0x43 }
  - { offsetInCU: 0x472D0, offset: 0x8B043, size: 0x8, addend: 0x0, symName: __ZN4edit3tui7Context13inherit_focus17h8014ccac8da5cef6E, symObjAddr: 0x24DE0, symBinAddr: 0x1000252A0, symSize: 0x9C }
  - { offsetInCU: 0x475D8, offset: 0x8B34B, size: 0x8, addend: 0x0, symName: __ZN4edit3tui7Context10attr_float17h7330759726e4e042E, symObjAddr: 0x24E7C, symBinAddr: 0x10002533C, symSize: 0x13A }
  - { offsetInCU: 0x47843, offset: 0x8B5B6, size: 0x8, addend: 0x0, symName: __ZN4edit3tui7Context11modal_begin17h6b862c32a7fb27f0E, symObjAddr: 0x24FB6, symBinAddr: 0x100025476, symSize: 0x17B }
  - { offsetInCU: 0x47A87, offset: 0x8B7FA, size: 0x8, addend: 0x0, symName: __ZN4edit3tui7Context9modal_end17h5b54b564842450f7E, symObjAddr: 0x25131, symBinAddr: 0x1000255F1, symSize: 0x65 }
  - { offsetInCU: 0x47EFD, offset: 0x8BC70, size: 0x8, addend: 0x0, symName: __ZN4edit3tui7Context17table_set_columns17h71d88ddbd04b5efaE, symObjAddr: 0x25196, symBinAddr: 0x100025656, symSize: 0x6E }
  - { offsetInCU: 0x4813E, offset: 0x8BEB1, size: 0x8, addend: 0x0, symName: __ZN4edit3tui7Context14table_next_row17h122367e7e3e58892E, symObjAddr: 0x25204, symBinAddr: 0x1000256C4, symSize: 0x6E }
  - { offsetInCU: 0x4823E, offset: 0x8BFB1, size: 0x8, addend: 0x0, symName: __ZN4edit3tui7Context16table_move_focus17hd28cec730001f8e5E, symObjAddr: 0x25272, symBinAddr: 0x100025732, symSize: 0x119 }
  - { offsetInCU: 0x486F4, offset: 0x8C467, size: 0x8, addend: 0x0, symName: __ZN4edit3tui7Context9table_end17h534e3a5a569f7e26E, symObjAddr: 0x2538B, symBinAddr: 0x10002584B, symSize: 0x56 }
  - { offsetInCU: 0x48755, offset: 0x8C4C8, size: 0x8, addend: 0x0, symName: __ZN4edit3tui7Context5label17h3b63b2aa01bebe9bE, symObjAddr: 0x253E1, symBinAddr: 0x1000258A1, symSize: 0x39 }
  - { offsetInCU: 0x487E7, offset: 0x8C55A, size: 0x8, addend: 0x0, symName: __ZN4edit3tui7Context18styled_label_begin17h762a399733c05470E, symObjAddr: 0x2541A, symBinAddr: 0x1000258DA, symSize: 0x74 }
  - { offsetInCU: 0x4894E, offset: 0x8C6C1, size: 0x8, addend: 0x0, symName: __ZN4edit3tui7Context21styled_label_add_text17h6ea71124b4595078E, symObjAddr: 0x2548E, symBinAddr: 0x10002594E, symSize: 0x37 }
  - { offsetInCU: 0x48A91, offset: 0x8C804, size: 0x8, addend: 0x0, symName: __ZN4edit3tui7Context16styled_label_end17hcaf13d2335d14de5E, symObjAddr: 0x254C5, symBinAddr: 0x100025985, symSize: 0xD1 }
  - { offsetInCU: 0x48D11, offset: 0x8CA84, size: 0x8, addend: 0x0, symName: __ZN4edit3tui7Context27styled_label_set_attributes17h253d7974bfe420c9E, symObjAddr: 0x25596, symBinAddr: 0x100025A56, symSize: 0xB6 }
  - { offsetInCU: 0x48FC7, offset: 0x8CD3A, size: 0x8, addend: 0x0, symName: __ZN4edit3tui7Context6button17ha7153115d6e3b567E, symObjAddr: 0x2564C, symBinAddr: 0x100025B0C, symSize: 0x58 }
  - { offsetInCU: 0x491E8, offset: 0x8CF5B, size: 0x8, addend: 0x0, symName: __ZN4edit3tui7Context12button_label17hcb5f8a558b69579eE, symObjAddr: 0x256A4, symBinAddr: 0x100025B64, symSize: 0x274 }
  - { offsetInCU: 0x49596, offset: 0x8D309, size: 0x8, addend: 0x0, symName: __ZN4edit3tui7Context16button_activated17hb2715456d2bb5e3eE, symObjAddr: 0x25918, symBinAddr: 0x100025DD8, symSize: 0x92 }
  - { offsetInCU: 0x498BB, offset: 0x8D62E, size: 0x8, addend: 0x0, symName: __ZN4edit3tui7Context8checkbox17he63bf7e6e210bb4bE, symObjAddr: 0x259AA, symBinAddr: 0x100025E6A, symSize: 0xCF }
  - { offsetInCU: 0x4A3B1, offset: 0x8E124, size: 0x8, addend: 0x0, symName: __ZN4edit3tui7Context17textarea_internal17hd7bf199849b01d48E, symObjAddr: 0x25A79, symBinAddr: 0x100025F39, symSize: 0x18D7 }
  - { offsetInCU: 0x4C5AA, offset: 0x9031D, size: 0x8, addend: 0x0, symName: __ZN4edit3tui7Context16scrollarea_begin17h4ff4bd52fd6c138bE, symObjAddr: 0x27430, symBinAddr: 0x1000278F0, symSize: 0x89 }
  - { offsetInCU: 0x4C663, offset: 0x903D6, size: 0x8, addend: 0x0, symName: __ZN4edit3tui7Context14scrollarea_end17h4e5986028d2a55bcE, symObjAddr: 0x274B9, symBinAddr: 0x100027979, symSize: 0x2CB }
  - { offsetInCU: 0x4CAF7, offset: 0x9086A, size: 0x8, addend: 0x0, symName: __ZN4edit3tui7Context10list_begin17he0680df6bedfb4faE, symObjAddr: 0x27784, symBinAddr: 0x100027C44, symSize: 0x71 }
  - { offsetInCU: 0x4CC06, offset: 0x90979, size: 0x8, addend: 0x0, symName: __ZN4edit3tui7Context9list_item17h19171445b2a9cbd3E, symObjAddr: 0x277F5, symBinAddr: 0x100027CB5, symSize: 0x3F }
  - { offsetInCU: 0x4CC4B, offset: 0x909BE, size: 0x8, addend: 0x0, symName: __ZN4edit3tui7Context22styled_list_item_begin17he9c0834aeddd84dcE, symObjAddr: 0x27834, symBinAddr: 0x100027CF4, symSize: 0x52 }
  - { offsetInCU: 0x4CD20, offset: 0x90A93, size: 0x8, addend: 0x0, symName: __ZN4edit3tui7Context20styled_list_item_end17h0ea89f884459442aE, symObjAddr: 0x27886, symBinAddr: 0x100027D46, symSize: 0x153 }
  - { offsetInCU: 0x4D197, offset: 0x90F0A, size: 0x8, addend: 0x0, symName: __ZN4edit3tui7Context8list_end17h012099300e6a2b82E, symObjAddr: 0x279D9, symBinAddr: 0x100027E99, symSize: 0x2A7 }
  - { offsetInCU: 0x4D8A5, offset: 0x91618, size: 0x8, addend: 0x0, symName: __ZN4edit3tui7Context18menubar_menu_begin17hc2c890970940c96aE, symObjAddr: 0x27C80, symBinAddr: 0x100028140, symSize: 0x1AD }
  - { offsetInCU: 0x4DFD7, offset: 0x91D4A, size: 0x8, addend: 0x0, symName: __ZN4edit3tui7Context21menubar_menu_checkbox17h176a23af5475f854E, symObjAddr: 0x27E2D, symBinAddr: 0x1000282ED, symSize: 0x338 }
  - { offsetInCU: 0x4ED28, offset: 0x92A9B, size: 0x8, addend: 0x0, symName: __ZN4edit3tui7Context16menubar_menu_end17h3af1347c1abfde37E, symObjAddr: 0x28165, symBinAddr: 0x100028625, symSize: 0xE3 }
  - { offsetInCU: 0x1F, offset: 0x93008, size: 0x8, addend: 0x0, symName: __RNvCs6SHGxn6gcnI_7___rustc20___rust_panic_cleanup, symObjAddr: 0x0, symBinAddr: 0x100059B60, symSize: 0x20 }
  - { offsetInCU: 0x32, offset: 0x9301B, size: 0x8, addend: 0x0, symName: __RNvCs6SHGxn6gcnI_7___rustc20___rust_panic_cleanup, symObjAddr: 0x0, symBinAddr: 0x100059B60, symSize: 0x20 }
  - { offsetInCU: 0x4D, offset: 0x93036, size: 0x8, addend: 0x0, symName: __RNvCs6SHGxn6gcnI_7___rustc18___rust_start_panic, symObjAddr: 0x20, symBinAddr: 0x100059B80, symSize: 0x9 }
  - { offsetInCU: 0x1F, offset: 0x93070, size: 0x8, addend: 0x0, symName: '__ZN5alloc7raw_vec19RawVec$LT$T$C$A$GT$8grow_one17h6af9691cb38d7d20E', symObjAddr: 0x270, symBinAddr: 0x100002780, symSize: 0xA0 }
  - { offsetInCU: 0x1AD, offset: 0x931FE, size: 0x8, addend: 0x0, symName: '__ZN5alloc7raw_vec19RawVec$LT$T$C$A$GT$8grow_one17h6af9691cb38d7d20E', symObjAddr: 0x270, symBinAddr: 0x100002780, symSize: 0xA0 }
  - { offsetInCU: 0x334, offset: 0x93385, size: 0x8, addend: 0x0, symName: __ZN5alloc7raw_vec11finish_grow17h706f293e349af6b8E, symObjAddr: 0x310, symBinAddr: 0x100059BC0, symSize: 0x5D }
  - { offsetInCU: 0x3AC, offset: 0x933FD, size: 0x8, addend: 0x0, symName: __ZN5alloc7raw_vec12handle_error17ha0eb0992a3a7c798E, symObjAddr: 0x36D, symBinAddr: 0x100059C1D, symSize: 0x16 }
  - { offsetInCU: 0x3EB, offset: 0x9343C, size: 0x8, addend: 0x0, symName: __ZN5alloc7raw_vec17capacity_overflow17h0e40de2d0b153d78E, symObjAddr: 0x3A0, symBinAddr: 0x100059C50, symSize: 0x40 }
  - { offsetInCU: 0x423, offset: 0x93474, size: 0x8, addend: 0x0, symName: '__ZN5alloc7raw_vec20RawVecInner$LT$A$GT$7reserve21do_reserve_and_handle17h9149048baf9bff24E', symObjAddr: 0x3E0, symBinAddr: 0x100059C90, symSize: 0xA0 }
  - { offsetInCU: 0x62F, offset: 0x93680, size: 0x8, addend: 0x0, symName: __ZN5alloc5alloc18handle_alloc_error17hb9e3a64cd43f0b47E, symObjAddr: 0x383, symBinAddr: 0x100059C33, symSize: 0x1D }
  - { offsetInCU: 0x700, offset: 0x93751, size: 0x8, addend: 0x0, symName: '__ZN81_$LT$$RF$$u5b$u8$u5d$$u20$as$u20$alloc..ffi..c_str..CString..new..SpecNewImpl$GT$13spec_new_impl17h7a51c9cda6b59c19E', symObjAddr: 0x480, symBinAddr: 0x100002820, symSize: 0xD0 }
  - { offsetInCU: 0x900, offset: 0x93951, size: 0x8, addend: 0x0, symName: __ZN5alloc3ffi5c_str7CString19_from_vec_unchecked17h5eb927bdc42c4ea6E, symObjAddr: 0x550, symBinAddr: 0x1000028F0, symSize: 0x120 }
  - { offsetInCU: 0xD7F, offset: 0x93DD0, size: 0x8, addend: 0x0, symName: __ZN5alloc6string6String15from_utf8_lossy17h3542b891e91be318E, symObjAddr: 0x670, symBinAddr: 0x100002A10, symSize: 0x260 }
  - { offsetInCU: 0x1483, offset: 0x944D4, size: 0x8, addend: 0x0, symName: '__ZN58_$LT$alloc..string..String$u20$as$u20$core..fmt..Write$GT$9write_str17h6ecd62f56939f332E', symObjAddr: 0xA50, symBinAddr: 0x100002DF0, symSize: 0x60 }
  - { offsetInCU: 0x1576, offset: 0x945C7, size: 0x8, addend: 0x0, symName: '__ZN58_$LT$alloc..string..String$u20$as$u20$core..fmt..Write$GT$10write_char17h35a207bcc7494beaE', symObjAddr: 0xAB0, symBinAddr: 0x100002E50, symSize: 0x120 }
  - { offsetInCU: 0x1720, offset: 0x94771, size: 0x8, addend: 0x0, symName: '__ZN98_$LT$alloc..string..String$u20$as$u20$core..convert..From$LT$alloc..borrow..Cow$LT$str$GT$$GT$$GT$4from17h1a826aad87658a92E', symObjAddr: 0xC00, symBinAddr: 0x100002FA0, symSize: 0x94 }
  - { offsetInCU: 0x18EF, offset: 0x94940, size: 0x8, addend: 0x0, symName: __ZN5alloc3fmt6format12format_inner17h6e6d2b132165a680E, symObjAddr: 0x8D0, symBinAddr: 0x100002C70, symSize: 0x140 }
  - { offsetInCU: 0x1E55, offset: 0x94EA6, size: 0x8, addend: 0x0, symName: __ZN4core3fmt5Write9write_fmt17h41bde75d18b2c95bE, symObjAddr: 0xBD0, symBinAddr: 0x100002F70, symSize: 0x30 }
  - { offsetInCU: 0x1EB4, offset: 0x94F05, size: 0x8, addend: 0x0, symName: '__ZN53_$LT$core..fmt..Error$u20$as$u20$core..fmt..Debug$GT$3fmt17h83dc88809ba1590fE', symObjAddr: 0xA10, symBinAddr: 0x100002DB0, symSize: 0x20 }
  - { offsetInCU: 0x1F63, offset: 0x94FB4, size: 0x8, addend: 0x0, symName: '__ZN4core3ptr42drop_in_place$LT$alloc..string..String$GT$17hee4002b7240362f9E', symObjAddr: 0xA30, symBinAddr: 0x100002DD0, symSize: 0x20 }
  - { offsetInCU: 0x1C2, offset: 0x953B0, size: 0x8, addend: 0x0, symName: __ZN3std3sys3pal4unix4time8Timespec3now17hea2a15acb9177b75E, symObjAddr: 0x5D400, symBinAddr: 0x100058B50, symSize: 0x100 }
  - { offsetInCU: 0x282, offset: 0x95470, size: 0x8, addend: 0x0, symName: __ZN3std3sys3pal4unix4time8Timespec12sub_timespec17h334387663efecdf0E, symObjAddr: 0x5D500, symBinAddr: 0x100058C50, symSize: 0xC0 }
  - { offsetInCU: 0x455, offset: 0x95643, size: 0x8, addend: 0x0, symName: __ZN3std3sys3pal4unix4sync5mutex5Mutex4lock4fail17h29a75df93b454ca1E, symObjAddr: 0x30B60, symBinAddr: 0x10005C150, symSize: 0xE0 }
  - { offsetInCU: 0x742, offset: 0x95930, size: 0x8, addend: 0x0, symName: __ZN3std3sys3pal4unix14abort_internal17h40dd8c1e52eddad9E, symObjAddr: 0x305B0, symBinAddr: 0x10005BD60, symSize: 0x10 }
  - { offsetInCU: 0x7C3, offset: 0x959B1, size: 0x8, addend: 0x0, symName: __ZN3std3sys3pal4unix14stack_overflow3imp12make_handler17h59aaf6814f455a50E, symObjAddr: 0x5A0E0, symBinAddr: 0x100055A60, symSize: 0x1B0 }
  - { offsetInCU: 0x993, offset: 0x95B81, size: 0x8, addend: 0x0, symName: __ZN3std3sys3pal4unix14stack_overflow3imp14signal_handler17h2f780290933038b3E, symObjAddr: 0x5AEC0, symBinAddr: 0x100056840, symSize: 0x2D0 }
  - { offsetInCU: 0x1074, offset: 0x96262, size: 0x8, addend: 0x0, symName: __ZN3std3sys3pal4unix14stack_overflow11thread_info16set_current_info17h9da31ca4f194734aE, symObjAddr: 0x5A290, symBinAddr: 0x100055C10, symSize: 0xC30 }
  - { offsetInCU: 0x2477, offset: 0x97665, size: 0x8, addend: 0x0, symName: __ZN3std3sys3pal6common14small_c_string24run_with_cstr_allocating17h6c56eaf09485903dE, symObjAddr: 0x4B710, symBinAddr: 0x100060120, symSize: 0x90 }
  - { offsetInCU: 0x255D, offset: 0x9774B, size: 0x8, addend: 0x0, symName: __ZN3std3sys3pal6common14small_c_string24run_with_cstr_allocating17hae664f021203db44E, symObjAddr: 0x56F80, symBinAddr: 0x1000601B0, symSize: 0x1A0 }
  - { offsetInCU: 0x27B1, offset: 0x9799F, size: 0x8, addend: 0x0, symName: __ZN3std3sys3pal6common14small_c_string24run_with_cstr_allocating17hdd09cca1c32a42a6E, symObjAddr: 0x59270, symBinAddr: 0x100060440, symSize: 0xA0 }
  - { offsetInCU: 0x2978, offset: 0x97B66, size: 0x8, addend: 0x0, symName: __ZN3std3sys3pal6common14small_c_string24run_with_cstr_allocating17hf4ef8d9d9ac3941eE, symObjAddr: 0x5D720, symBinAddr: 0x100060970, symSize: 0xA0 }
  - { offsetInCU: 0x2C8C, offset: 0x97E7A, size: 0x8, addend: 0x0, symName: '__ZN65_$LT$std..sys..fs..unix..Dir$u20$as$u20$core..ops..drop..Drop$GT$4drop17h33f399266bddb5f4E', symObjAddr: 0x4AE30, symBinAddr: 0x100046E50, symSize: 0xD0 }
  - { offsetInCU: 0x2DE1, offset: 0x97FCF, size: 0x8, addend: 0x0, symName: __ZN3std3sys2fs8read_dir17h3a7dbaaaaf51be26E, symObjAddr: 0x39750, symBinAddr: 0x100039510, symSize: 0x1D0 }
  - { offsetInCU: 0x313B, offset: 0x98329, size: 0x8, addend: 0x0, symName: __ZN3std3sys2fs8metadata17h4ca6414926511ba6E, symObjAddr: 0x5E280, symBinAddr: 0x100059930, symSize: 0x110 }
  - { offsetInCU: 0x332F, offset: 0x9851D, size: 0x8, addend: 0x0, symName: __ZN3std3sys9backtrace13BacktraceLock5print17hbdafe4a7722824c3E, symObjAddr: 0x30D50, symBinAddr: 0x100030C40, symSize: 0x60 }
  - { offsetInCU: 0x337E, offset: 0x9856C, size: 0x8, addend: 0x0, symName: '__ZN98_$LT$std..sys..backtrace..BacktraceLock..print..DisplayBacktrace$u20$as$u20$core..fmt..Display$GT$3fmt17h28357d65295ffbcfE', symObjAddr: 0x30DB0, symBinAddr: 0x100030CA0, symSize: 0x240 }
  - { offsetInCU: 0x3816, offset: 0x98A04, size: 0x8, addend: 0x0, symName: '__ZN3std3sys9backtrace10_print_fmt28_$u7b$$u7b$closure$u7d$$u7d$17hb9554e2730f6e629E', symObjAddr: 0x31200, symBinAddr: 0x1000310A0, symSize: 0x3040 }
  - { offsetInCU: 0x9DBB, offset: 0x9EFA9, size: 0x8, addend: 0x0, symName: '__ZN3std3sys9backtrace10_print_fmt28_$u7b$$u7b$closure$u7d$$u7d$28_$u7b$$u7b$closure$u7d$$u7d$17hc6e5c3e50f7a45efE', symObjAddr: 0x57120, symBinAddr: 0x100052F10, symSize: 0x2A0 }
  - { offsetInCU: 0x9FBD, offset: 0x9F1AB, size: 0x8, addend: 0x0, symName: '__ZN3std3sys9backtrace10_print_fmt28_$u7b$$u7b$closure$u7d$$u7d$17h71d1fca527678d04E', symObjAddr: 0x57D90, symBinAddr: 0x100053AD0, symSize: 0x20 }
  - { offsetInCU: 0x9FE7, offset: 0x9F1D5, size: 0x8, addend: 0x0, symName: __ZN3std3sys9backtrace15output_filename17h6ec9c7cbfcb6864eE, symObjAddr: 0x57DB0, symBinAddr: 0x100053AF0, symSize: 0x570 }
  - { offsetInCU: 0xA327, offset: 0x9F515, size: 0x8, addend: 0x0, symName: __ZN3std3sys9backtrace26__rust_end_short_backtrace17h54e6156e905edc36E, symObjAddr: 0x5DC60, symBinAddr: 0x100059310, symSize: 0x10 }
  - { offsetInCU: 0xA367, offset: 0x9F555, size: 0x8, addend: 0x0, symName: _rust_eh_personality, symObjAddr: 0x2F230, symBinAddr: 0x10002F610, symSize: 0x6C0 }
  - { offsetInCU: 0xAE79, offset: 0xA0067, size: 0x8, addend: 0x0, symName: '__ZN3std3sys11personality3gcc14find_eh_action28_$u7b$$u7b$closure$u7d$$u7d$17h2e67b2d66e89e13fE', symObjAddr: 0x59FE0, symBinAddr: 0x100055970, symSize: 0x10 }
  - { offsetInCU: 0xAE9B, offset: 0xA0089, size: 0x8, addend: 0x0, symName: '__ZN3std3sys11personality3gcc14find_eh_action28_$u7b$$u7b$closure$u7d$$u7d$17hbea1d98d43e4641fE', symObjAddr: 0x5A000, symBinAddr: 0x100055990, symSize: 0x10 }
  - { offsetInCU: 0xAFC4, offset: 0xA01B2, size: 0x8, addend: 0x0, symName: __ZN3std3sys4sync6rwlock5queue6RwLock12unlock_queue17h8814d03739489b0fE, symObjAddr: 0x30710, symBinAddr: 0x1000309E0, symSize: 0x170 }
  - { offsetInCU: 0xB5CB, offset: 0xA07B9, size: 0x8, addend: 0x0, symName: __ZN3std3sys4sync6rwlock5queue6RwLock21read_unlock_contended17hbc2c798c2f4f3455E, symObjAddr: 0x59310, symBinAddr: 0x1000604E0, symSize: 0x50 }
  - { offsetInCU: 0xB73A, offset: 0xA0928, size: 0x8, addend: 0x0, symName: __ZN3std3sys4sync6rwlock5queue6RwLock16unlock_contended17h9118e406dcab10f1E, symObjAddr: 0x593B0, symBinAddr: 0x100060530, symSize: 0x40 }
  - { offsetInCU: 0xB8DA, offset: 0xA0AC8, size: 0x8, addend: 0x0, symName: '__ZN83_$LT$std..sys..sync..rwlock..queue..PanicGuard$u20$as$u20$core..ops..drop..Drop$GT$4drop17h672ac4ccf8feecf8E', symObjAddr: 0x30880, symBinAddr: 0x10005BE70, symSize: 0x60 }
  - { offsetInCU: 0xB97D, offset: 0xA0B6B, size: 0x8, addend: 0x0, symName: '__ZN3std3sys4sync8once_box16OnceBox$LT$T$GT$10initialize17h32d02e10a91a6d01E', symObjAddr: 0x30900, symBinAddr: 0x10005BEF0, symSize: 0x260 }
  - { offsetInCU: 0xBD53, offset: 0xA0F41, size: 0x8, addend: 0x0, symName: '__ZN82_$LT$std..sys..sync..once..queue..WaiterQueue$u20$as$u20$core..ops..drop..Drop$GT$4drop17hbeff0ca06f224950E', symObjAddr: 0x5B4B0, symBinAddr: 0x100056C60, symSize: 0xA0 }
  - { offsetInCU: 0xBEF2, offset: 0xA10E0, size: 0x8, addend: 0x0, symName: __ZN3std3sys4sync4once5queue4Once4call17hb3f5ba7f42835cc5E, symObjAddr: 0x5B190, symBinAddr: 0x100060730, symSize: 0x1D0 }
  - { offsetInCU: 0xC1A0, offset: 0xA138E, size: 0x8, addend: 0x0, symName: __ZN3std3sys4sync4once5queue4wait17h77caad947d1bce43E, symObjAddr: 0x5B360, symBinAddr: 0x100056B10, symSize: 0x150 }
  - { offsetInCU: 0xC6C1, offset: 0xA18AF, size: 0x8, addend: 0x0, symName: __ZN3std3sys12thread_local5guard5apple6enable9run_dtors17h725955f816ebbbdcE, symObjAddr: 0x58CE0, symBinAddr: 0x1000549F0, symSize: 0xD0 }
  - { offsetInCU: 0xCB1C, offset: 0xA1D0A, size: 0x8, addend: 0x0, symName: '__ZN3std3sys3env4unix6getenv28_$u7b$$u7b$closure$u7d$$u7d$17h7c369913eb1a5fd2E', symObjAddr: 0x58EE0, symBinAddr: 0x100054BF0, symSize: 0x390 }
  - { offsetInCU: 0xD491, offset: 0xA267F, size: 0x8, addend: 0x0, symName: __ZN3std5alloc24default_alloc_error_hook17h7228b3446cd6bc2cE, symObjAddr: 0x5E390, symBinAddr: 0x100059A40, symSize: 0xD0 }
  - { offsetInCU: 0xD774, offset: 0xA2962, size: 0x8, addend: 0x0, symName: __ZN3std5alloc8rust_oom17h2b824353655bdfb9E, symObjAddr: 0x5E490, symBinAddr: 0x100060A10, symSize: 0x10 }
  - { offsetInCU: 0xD794, offset: 0xA2982, size: 0x8, addend: 0x0, symName: __RNvCs6SHGxn6gcnI_7___rustc8___rg_oom, symObjAddr: 0x5E4A0, symBinAddr: 0x100060A20, symSize: 0x20 }
  - { offsetInCU: 0xD7ED, offset: 0xA29DB, size: 0x8, addend: 0x0, symName: __ZN3std3env11current_dir17hb6b4557ed18e3028E, symObjAddr: 0x30FF0, symBinAddr: 0x100030EE0, symSize: 0x170 }
  - { offsetInCU: 0xDD07, offset: 0xA2EF5, size: 0x8, addend: 0x0, symName: __ZN3std3env7_var_os17hc240b554ddc610d1E, symObjAddr: 0x58DB0, symBinAddr: 0x100054AC0, symSize: 0x130 }
  - { offsetInCU: 0xE272, offset: 0xA3460, size: 0x8, addend: 0x0, symName: '__ZN60_$LT$std..time..Instant$u20$as$u20$core..ops..arith..Sub$GT$3sub17he69671497b95359dE', symObjAddr: 0x5DC20, symBinAddr: 0x1000592D0, symSize: 0x40 }
  - { offsetInCU: 0xE3C3, offset: 0xA35B1, size: 0x8, addend: 0x0, symName: __ZN3std2fs11OpenOptions5_open17hc8294bba33b318f8E, symObjAddr: 0x56DC0, symBinAddr: 0x100052D50, symSize: 0x1C0 }
  - { offsetInCU: 0xE599, offset: 0xA3787, size: 0x8, addend: 0x0, symName: '__ZN47_$LT$std..fs..File$u20$as$u20$std..io..Read$GT$4read17hc64ab6cc1f5c67e6E', symObjAddr: 0x5D630, symBinAddr: 0x100058D80, symSize: 0x50 }
  - { offsetInCU: 0xE81A, offset: 0xA3A08, size: 0x8, addend: 0x0, symName: '__ZN62_$LT$std..io..error..ErrorKind$u20$as$u20$core..fmt..Debug$GT$3fmt17h14ed8a552dadbac2E', symObjAddr: 0x4B6A0, symBinAddr: 0x1000476C0, symSize: 0x40 }
  - { offsetInCU: 0xE85C, offset: 0xA3A4A, size: 0x8, addend: 0x0, symName: '__ZN58_$LT$std..io..error..Error$u20$as$u20$core..fmt..Debug$GT$3fmt17h6c4fe2ea102923ceE', symObjAddr: 0x4AF80, symBinAddr: 0x100046FA0, symSize: 0x6A0 }
  - { offsetInCU: 0xEE67, offset: 0xA4055, size: 0x8, addend: 0x0, symName: '__ZN60_$LT$std..io..error..Error$u20$as$u20$core..fmt..Display$GT$3fmt17hbbfe40415010dcf0E', symObjAddr: 0x589A0, symBinAddr: 0x1000546E0, symSize: 0x280 }
  - { offsetInCU: 0xF1B8, offset: 0xA43A6, size: 0x8, addend: 0x0, symName: __ZN3std2io5Write9write_fmt17hc5133302b65fc377E, symObjAddr: 0x30470, symBinAddr: 0x100030850, symSize: 0x120 }
  - { offsetInCU: 0xF515, offset: 0xA4703, size: 0x8, addend: 0x0, symName: __ZN3std2io5Write9write_all17h970615546f43e36cE, symObjAddr: 0x30C60, symBinAddr: 0x100030B50, symSize: 0xA0 }
  - { offsetInCU: 0xF69C, offset: 0xA488A, size: 0x8, addend: 0x0, symName: '__ZN81_$LT$std..io..default_write_fmt..Adapter$LT$T$GT$$u20$as$u20$core..fmt..Write$GT$9write_str17h9b6310241d3139edE', symObjAddr: 0x58780, symBinAddr: 0x1000544C0, symSize: 0xA0 }
  - { offsetInCU: 0xF7F1, offset: 0xA49DF, size: 0x8, addend: 0x0, symName: '__ZN81_$LT$std..io..default_write_fmt..Adapter$LT$T$GT$$u20$as$u20$core..fmt..Write$GT$9write_str17h49b3ecfc5392daf2E', symObjAddr: 0x59C80, symBinAddr: 0x1000556B0, symSize: 0xD0 }
  - { offsetInCU: 0xFB0B, offset: 0xA4CF9, size: 0x8, addend: 0x0, symName: __ZN3std4path4Path5_join17h80623651b43e8fc6E, symObjAddr: 0x399A0, symBinAddr: 0x100039760, symSize: 0x180 }
  - { offsetInCU: 0x10136, offset: 0xA5324, size: 0x8, addend: 0x0, symName: __ZN3std4path4Path6is_dir17h81fb2ea766ee40eaE, symObjAddr: 0x5D7C0, symBinAddr: 0x100058E70, symSize: 0x1A0 }
  - { offsetInCU: 0x105D0, offset: 0xA57BE, size: 0x8, addend: 0x0, symName: __ZN3std4path4Path11to_path_buf17h837cbe34b885a5f3E, symObjAddr: 0x5DAE0, symBinAddr: 0x100059190, symSize: 0x80 }
  - { offsetInCU: 0x10780, offset: 0xA596E, size: 0x8, addend: 0x0, symName: __ZN3std4path4Path6parent17hdf65634d31cace9eE, symObjAddr: 0x5DB60, symBinAddr: 0x100059210, symSize: 0x60 }
  - { offsetInCU: 0x10797, offset: 0xA5985, size: 0x8, addend: 0x0, symName: __ZN3std4path4Path6parent17hdf65634d31cace9eE, symObjAddr: 0x5DB60, symBinAddr: 0x100059210, symSize: 0x60 }
  - { offsetInCU: 0x107AC, offset: 0xA599A, size: 0x8, addend: 0x0, symName: __ZN3std4path4Path6parent17hdf65634d31cace9eE, symObjAddr: 0x5DB60, symBinAddr: 0x100059210, symSize: 0x60 }
  - { offsetInCU: 0x10801, offset: 0xA59EF, size: 0x8, addend: 0x0, symName: __ZN3std4path4Path9file_name17h1ada354c55de4b10E, symObjAddr: 0x5DBC0, symBinAddr: 0x100059270, symSize: 0x60 }
  - { offsetInCU: 0x1081F, offset: 0xA5A0D, size: 0x8, addend: 0x0, symName: __ZN3std4path4Path9file_name17h1ada354c55de4b10E, symObjAddr: 0x5DBC0, symBinAddr: 0x100059270, symSize: 0x60 }
  - { offsetInCU: 0x10834, offset: 0xA5A22, size: 0x8, addend: 0x0, symName: __ZN3std4path4Path9file_name17h1ada354c55de4b10E, symObjAddr: 0x5DBC0, symBinAddr: 0x100059270, symSize: 0x60 }
  - { offsetInCU: 0x109CB, offset: 0xA5BB9, size: 0x8, addend: 0x0, symName: __ZN3std4path10Components7as_path17h5ac719dd06f8614cE, symObjAddr: 0x353D0, symBinAddr: 0x100035190, symSize: 0x3D0 }
  - { offsetInCU: 0x10CC2, offset: 0xA5EB0, size: 0x8, addend: 0x0, symName: __ZN3std4path10Components25parse_next_component_back17h2274109b1e773744E, symObjAddr: 0x56B80, symBinAddr: 0x100052B10, symSize: 0xF0 }
  - { offsetInCU: 0x10E42, offset: 0xA6030, size: 0x8, addend: 0x0, symName: __ZN3std4path10Components15len_before_body17hccf7cd65279bc72fE, symObjAddr: 0x56C70, symBinAddr: 0x100052C00, symSize: 0x150 }
  - { offsetInCU: 0x10E59, offset: 0xA6047, size: 0x8, addend: 0x0, symName: __ZN3std4path10Components15len_before_body17hccf7cd65279bc72fE, symObjAddr: 0x56C70, symBinAddr: 0x100052C00, symSize: 0x150 }
  - { offsetInCU: 0x10E6E, offset: 0xA605C, size: 0x8, addend: 0x0, symName: __ZN3std4path10Components15len_before_body17hccf7cd65279bc72fE, symObjAddr: 0x56C70, symBinAddr: 0x100052C00, symSize: 0x150 }
  - { offsetInCU: 0x1106F, offset: 0xA625D, size: 0x8, addend: 0x0, symName: '__ZN95_$LT$std..path..Components$u20$as$u20$core..iter..traits..double_ended..DoubleEndedIterator$GT$9next_back17h4e63348405dae24fE', symObjAddr: 0x34FD0, symBinAddr: 0x100034D90, symSize: 0x400 }
  - { offsetInCU: 0x112AA, offset: 0xA6498, size: 0x8, addend: 0x0, symName: __ZN3std4path7PathBuf5_push17h2596f74bf9bfa766E, symObjAddr: 0x5DA00, symBinAddr: 0x1000590B0, symSize: 0xE0 }
  - { offsetInCU: 0x116AF, offset: 0xA689D, size: 0x8, addend: 0x0, symName: '__ZN80_$LT$std..path..Components$u20$as$u20$core..iter..traits..iterator..Iterator$GT$4next17ha2c0ef1763e9920eE', symObjAddr: 0x58320, symBinAddr: 0x100054060, symSize: 0x440 }
  - { offsetInCU: 0x11B22, offset: 0xA6D10, size: 0x8, addend: 0x0, symName: __ZN3std6thread6Thread3new17h8e3bc32286c0da57E, symObjAddr: 0x595A0, symBinAddr: 0x100054FD0, symSize: 0x1B0 }
  - { offsetInCU: 0x12046, offset: 0xA7234, size: 0x8, addend: 0x0, symName: __ZN3std6thread7current12init_current17h9f69ec1f6c71ca6fE, symObjAddr: 0x593F0, symBinAddr: 0x100060570, symSize: 0x160 }
  - { offsetInCU: 0x1241B, offset: 0xA7609, size: 0x8, addend: 0x0, symName: __ZN3std6thread8ThreadId3new9exhausted17h92a64b6c8ab57939E, symObjAddr: 0x59550, symBinAddr: 0x1000606D0, symSize: 0x50 }
  - { offsetInCU: 0x124D9, offset: 0xA76C7, size: 0x8, addend: 0x0, symName: __ZN3std9panicking11panic_count17is_zero_slow_path17h36b7281ffb5e6f1aE, symObjAddr: 0x30C40, symBinAddr: 0x10005C230, symSize: 0x20 }
  - { offsetInCU: 0x125D5, offset: 0xA77C3, size: 0x8, addend: 0x0, symName: __ZN3std9panicking20rust_panic_with_hook17h53d870b509838f7aE, symObjAddr: 0x2F8F0, symBinAddr: 0x10002FCD0, symSize: 0xAF0 }
  - { offsetInCU: 0x140D9, offset: 0xA92C7, size: 0x8, addend: 0x0, symName: __RNvCs6SHGxn6gcnI_7___rustc10rust_panic, symObjAddr: 0x308E0, symBinAddr: 0x10005BED0, symSize: 0x10 }
  - { offsetInCU: 0x14129, offset: 0xA9317, size: 0x8, addend: 0x0, symName: '__ZN3std9panicking19begin_panic_handler28_$u7b$$u7b$closure$u7d$$u7d$17h9e330253f51df3b9E', symObjAddr: 0x5DC70, symBinAddr: 0x100059320, symSize: 0xD0 }
  - { offsetInCU: 0x142B0, offset: 0xA949E, size: 0x8, addend: 0x0, symName: '__ZN92_$LT$std..panicking..begin_panic_handler..StaticStrPayload$u20$as$u20$core..fmt..Display$GT$3fmt17h0eb3d37688dfde48E', symObjAddr: 0x5DD40, symBinAddr: 0x1000593F0, symSize: 0x20 }
  - { offsetInCU: 0x142E7, offset: 0xA94D5, size: 0x8, addend: 0x0, symName: '__ZN99_$LT$std..panicking..begin_panic_handler..StaticStrPayload$u20$as$u20$core..panic..PanicPayload$GT$8take_box17h8ef59dded3dd0c3fE', symObjAddr: 0x5DD60, symBinAddr: 0x100059410, symSize: 0x40 }
  - { offsetInCU: 0x14389, offset: 0xA9577, size: 0x8, addend: 0x0, symName: '__ZN99_$LT$std..panicking..begin_panic_handler..StaticStrPayload$u20$as$u20$core..panic..PanicPayload$GT$3get17h7b0132041d799f04E', symObjAddr: 0x5DDA0, symBinAddr: 0x100059450, symSize: 0x10 }
  - { offsetInCU: 0x143A4, offset: 0xA9592, size: 0x8, addend: 0x0, symName: '__ZN99_$LT$std..panicking..begin_panic_handler..StaticStrPayload$u20$as$u20$core..panic..PanicPayload$GT$6as_str17h6107f69094413a9fE', symObjAddr: 0x5DDB0, symBinAddr: 0x100059460, symSize: 0x10 }
  - { offsetInCU: 0x143C5, offset: 0xA95B3, size: 0x8, addend: 0x0, symName: '__ZN95_$LT$std..panicking..begin_panic_handler..FormatStringPayload$u20$as$u20$core..fmt..Display$GT$3fmt17hfde23a4d7d885e77E', symObjAddr: 0x5DDE0, symBinAddr: 0x100059490, symSize: 0x80 }
  - { offsetInCU: 0x1452F, offset: 0xA971D, size: 0x8, addend: 0x0, symName: '__ZN102_$LT$std..panicking..begin_panic_handler..FormatStringPayload$u20$as$u20$core..panic..PanicPayload$GT$8take_box17h84fee7120899c17dE', symObjAddr: 0x5DE60, symBinAddr: 0x100059510, symSize: 0x140 }
  - { offsetInCU: 0x147C2, offset: 0xA99B0, size: 0x8, addend: 0x0, symName: '__ZN102_$LT$std..panicking..begin_panic_handler..FormatStringPayload$u20$as$u20$core..panic..PanicPayload$GT$3get17h702380c091ec12c3E', symObjAddr: 0x5DFA0, symBinAddr: 0x100059650, symSize: 0xE0 }
  - { offsetInCU: 0x1494C, offset: 0xA9B3A, size: 0x8, addend: 0x0, symName: __RNvCs6SHGxn6gcnI_7___rustc17rust_begin_unwind, symObjAddr: 0x5E460, symBinAddr: 0x100059B10, symSize: 0x30 }
  - { offsetInCU: 0x14ADC, offset: 0xA9CCA, size: 0x8, addend: 0x0, symName: '__ZN3std4sync6poison4once4Once9call_once28_$u7b$$u7b$closure$u7d$$u7d$17h7ed43809de9968b3E', symObjAddr: 0x5B570, symBinAddr: 0x100056D20, symSize: 0x638 }
  - { offsetInCU: 0x15A97, offset: 0xAAC85, size: 0x8, addend: 0x0, symName: '__ZN3std4sync6poison4once4Once15call_once_force28_$u7b$$u7b$closure$u7d$$u7d$17h6798e838ff5323b4E', symObjAddr: 0x5CF20, symBinAddr: 0x100058670, symSize: 0x90 }
  - { offsetInCU: 0x15B91, offset: 0xAAD7F, size: 0x8, addend: 0x0, symName: '__ZN3std4sync9once_lock17OnceLock$LT$T$GT$10initialize17he6e99ff082b3a50bE', symObjAddr: 0x5BBA8, symBinAddr: 0x100060908, symSize: 0x68 }
  - { offsetInCU: 0x15BBC, offset: 0xAADAA, size: 0x8, addend: 0x0, symName: '__ZN3std4sync9once_lock17OnceLock$LT$T$GT$10initialize17he6e99ff082b3a50bE', symObjAddr: 0x5BBA8, symBinAddr: 0x100060908, symSize: 0x68 }
  - { offsetInCU: 0x15BD0, offset: 0xAADBE, size: 0x8, addend: 0x0, symName: '__ZN3std4sync9once_lock17OnceLock$LT$T$GT$10initialize17he6e99ff082b3a50bE', symObjAddr: 0x5BBA8, symBinAddr: 0x100060908, symSize: 0x68 }
  - { offsetInCU: 0x15BE4, offset: 0xAADD2, size: 0x8, addend: 0x0, symName: '__ZN3std4sync9once_lock17OnceLock$LT$T$GT$10initialize17he6e99ff082b3a50bE', symObjAddr: 0x5BBA8, symBinAddr: 0x100060908, symSize: 0x68 }
  - { offsetInCU: 0x15CEF, offset: 0xAAEDD, size: 0x8, addend: 0x0, symName: __ZN3std7process5abort17h1bae1f242f216629E, symObjAddr: 0x308F0, symBinAddr: 0x10005BEE0, symSize: 0x10 }
  - { offsetInCU: 0x15D6E, offset: 0xAAF5C, size: 0x8, addend: 0x0, symName: __ZN3std12backtrace_rs5print17BacktraceFrameFmt21print_raw_with_column17h7bc7f5c6bf76c00eE, symObjAddr: 0x34240, symBinAddr: 0x1000340E0, symSize: 0x350 }
  - { offsetInCU: 0x15EB0, offset: 0xAB09E, size: 0x8, addend: 0x0, symName: __ZN3std12backtrace_rs5print17BacktraceFrameFmt14print_fileline17h4d37e7b7dc1d47d8E, symObjAddr: 0x348A0, symBinAddr: 0x100034740, symSize: 0x1D0 }
  - { offsetInCU: 0x15FC6, offset: 0xAB1B4, size: 0x8, addend: 0x0, symName: __ZN3std12backtrace_rs9backtrace9libunwind5trace8trace_fn17hb9f93897eb35f7c3E, symObjAddr: 0x31160, symBinAddr: 0x100031050, symSize: 0x40 }
  - { offsetInCU: 0x16239, offset: 0xAB427, size: 0x8, addend: 0x0, symName: __ZN3std12backtrace_rs9symbolize5gimli5macho6Object5parse17h3a75037a22d62f21E, symObjAddr: 0x357A0, symBinAddr: 0x100035560, symSize: 0xFD9 }
  - { offsetInCU: 0x18163, offset: 0xAD351, size: 0x8, addend: 0x0, symName: __ZN3std12backtrace_rs9symbolize5gimli5macho6Object7section17h513774401f868901E, symObjAddr: 0x4B7F0, symBinAddr: 0x100047780, symSize: 0x170 }
  - { offsetInCU: 0x1858D, offset: 0xAD77B, size: 0x8, addend: 0x0, symName: __ZN3std12backtrace_rs9symbolize5gimli5macho11find_header17h8d8f96d2e87355faE, symObjAddr: 0x34E50, symBinAddr: 0x100034C10, symSize: 0x180 }
  - { offsetInCU: 0x18CE0, offset: 0xADECE, size: 0x8, addend: 0x0, symName: __ZN3std12backtrace_rs9symbolize5gimli4mmap17hc2f09ad865331cc0E, symObjAddr: 0x34C10, symBinAddr: 0x1000349D0, symSize: 0x190 }
  - { offsetInCU: 0x19202, offset: 0xAE3F0, size: 0x8, addend: 0x0, symName: __ZN3std12backtrace_rs9symbolize5gimli7Context3new17h7891da4800e5165eE, symObjAddr: 0x36779, symBinAddr: 0x100036539, symSize: 0x2FD7 }
  - { offsetInCU: 0x1D44B, offset: 0xB2639, size: 0x8, addend: 0x0, symName: __ZN3std12backtrace_rs9symbolize5gimli7Context11find_frames17h941c7060f8d45d78E, symObjAddr: 0x39CB0, symBinAddr: 0x100039A70, symSize: 0x3E0 }
  - { offsetInCU: 0x1DA1D, offset: 0xB2C0B, size: 0x8, addend: 0x0, symName: '__ZN79_$LT$std..backtrace_rs..symbolize..SymbolName$u20$as$u20$core..fmt..Display$GT$3fmt17h45069f969767cca1E', symObjAddr: 0x34670, symBinAddr: 0x100034510, symSize: 0x230 }
  - { offsetInCU: 0x1DB47, offset: 0xB2D35, size: 0x8, addend: 0x0, symName: __ZN3std12backtrace_rs9symbolize6Symbol4name17h81787b39d17eb4d4E, symObjAddr: 0x573C0, symBinAddr: 0x1000531B0, symSize: 0x110 }
  - { offsetInCU: 0x1DC86, offset: 0xB2E74, size: 0x8, addend: 0x0, symName: __RNvCs6SHGxn6gcnI_7___rustc12___rust_abort, symObjAddr: 0x5A0D0, symBinAddr: 0x100060720, symSize: 0x10 }
  - { offsetInCU: 0x1DDA1, offset: 0xB2F8F, size: 0x8, addend: 0x0, symName: '__ZN58_$LT$alloc..string..String$u20$as$u20$core..fmt..Debug$GT$3fmt17h35f316a7803abd26E', symObjAddr: 0x4B680, symBinAddr: 0x1000476A0, symSize: 0x20 }
  - { offsetInCU: 0x1DE5B, offset: 0xB3049, size: 0x8, addend: 0x0, symName: '__ZN60_$LT$alloc..string..String$u20$as$u20$core..fmt..Display$GT$3fmt17h62946076c1ae4c66E', symObjAddr: 0x58C20, symBinAddr: 0x100054960, symSize: 0x20 }
  - { offsetInCU: 0x1DF3E, offset: 0xB312C, size: 0x8, addend: 0x0, symName: '__ZN58_$LT$alloc..string..String$u20$as$u20$core..fmt..Write$GT$9write_str17h6ecd62f56939f332E.538', symObjAddr: 0x5E0B0, symBinAddr: 0x100059760, symSize: 0x70 }
  - { offsetInCU: 0x1E031, offset: 0xB321F, size: 0x8, addend: 0x0, symName: '__ZN58_$LT$alloc..string..String$u20$as$u20$core..fmt..Write$GT$10write_char17h35a207bcc7494beaE.539', symObjAddr: 0x5E120, symBinAddr: 0x1000597D0, symSize: 0x130 }
  - { offsetInCU: 0x1EA09, offset: 0xB3BF7, size: 0x8, addend: 0x0, symName: '__ZN5alloc7raw_vec19RawVec$LT$T$C$A$GT$8grow_one17hc3dfda5b4b7cb60dE', symObjAddr: 0x34A70, symBinAddr: 0x100034910, symSize: 0xC0 }
  - { offsetInCU: 0x1EC93, offset: 0xB3E81, size: 0x8, addend: 0x0, symName: '__ZN5alloc7raw_vec19RawVec$LT$T$C$A$GT$8grow_one17h26efe7937728f7bcE', symObjAddr: 0x3CDA0, symBinAddr: 0x10003A630, symSize: 0xC0 }
  - { offsetInCU: 0x1EDB4, offset: 0xB3FA2, size: 0x8, addend: 0x0, symName: '__ZN5alloc7raw_vec19RawVec$LT$T$C$A$GT$8grow_one17hc0b093c18d43852aE', symObjAddr: 0x3D0D0, symBinAddr: 0x10003A960, symSize: 0xC0 }
  - { offsetInCU: 0x1EEC9, offset: 0xB40B7, size: 0x8, addend: 0x0, symName: '__ZN5alloc7raw_vec19RawVec$LT$T$C$A$GT$8grow_one17h0a0849f680f28d86E', symObjAddr: 0x3D190, symBinAddr: 0x10003AA20, symSize: 0xC0 }
  - { offsetInCU: 0x1EFEC, offset: 0xB41DA, size: 0x8, addend: 0x0, symName: '__ZN5alloc7raw_vec19RawVec$LT$T$C$A$GT$8grow_one17h8f251c715ff27606E', symObjAddr: 0x3DE30, symBinAddr: 0x10003B6C0, symSize: 0xC0 }
  - { offsetInCU: 0x1F17D, offset: 0xB436B, size: 0x8, addend: 0x0, symName: '__ZN5alloc7raw_vec19RawVec$LT$T$C$A$GT$8grow_one17h424d0d2c292a68d0E', symObjAddr: 0x47540, symBinAddr: 0x1000435E0, symSize: 0xC0 }
  - { offsetInCU: 0x1F292, offset: 0xB4480, size: 0x8, addend: 0x0, symName: '__ZN5alloc7raw_vec19RawVec$LT$T$C$A$GT$8grow_one17h051474a8a20bb324E', symObjAddr: 0x485D0, symBinAddr: 0x100044670, symSize: 0xC0 }
  - { offsetInCU: 0x1F3B4, offset: 0xB45A2, size: 0x8, addend: 0x0, symName: '__ZN5alloc7raw_vec19RawVec$LT$T$C$A$GT$8grow_one17h1b83c530ebc885a3E', symObjAddr: 0x48980, symBinAddr: 0x100044A20, symSize: 0xC0 }
  - { offsetInCU: 0x1F4C9, offset: 0xB46B7, size: 0x8, addend: 0x0, symName: '__ZN5alloc7raw_vec19RawVec$LT$T$C$A$GT$8grow_one17h5bcab01e4bff9256E', symObjAddr: 0x48A40, symBinAddr: 0x100044AE0, symSize: 0xC0 }
  - { offsetInCU: 0x1F5DE, offset: 0xB47CC, size: 0x8, addend: 0x0, symName: '__ZN5alloc7raw_vec19RawVec$LT$T$C$A$GT$8grow_one17h8e8c7359d2f40418E', symObjAddr: 0x4A520, symBinAddr: 0x1000465C0, symSize: 0xC0 }
  - { offsetInCU: 0x1F701, offset: 0xB48EF, size: 0x8, addend: 0x0, symName: '__ZN5alloc7raw_vec19RawVec$LT$T$C$A$GT$8grow_one17h47fa78bede50d2a0E', symObjAddr: 0x4BC60, symBinAddr: 0x100047BF0, symSize: 0xC0 }
  - { offsetInCU: 0x1F83E, offset: 0xB4A2C, size: 0x8, addend: 0x0, symName: '__ZN5alloc7raw_vec19RawVec$LT$T$C$A$GT$8grow_one17h64a557eae42927f4E', symObjAddr: 0x4ED80, symBinAddr: 0x10004AD10, symSize: 0xC0 }
  - { offsetInCU: 0x1F952, offset: 0xB4B40, size: 0x8, addend: 0x0, symName: '__ZN5alloc7raw_vec19RawVec$LT$T$C$A$GT$8grow_one17hb6ae4a97ba802f51E', symObjAddr: 0x4EE40, symBinAddr: 0x10004ADD0, symSize: 0xC0 }
  - { offsetInCU: 0x1FA67, offset: 0xB4C55, size: 0x8, addend: 0x0, symName: '__ZN5alloc7raw_vec19RawVec$LT$T$C$A$GT$8grow_one17h7ffaf7c62040a673E', symObjAddr: 0x4F090, symBinAddr: 0x10004B020, symSize: 0xC0 }
  - { offsetInCU: 0x1FB97, offset: 0xB4D85, size: 0x8, addend: 0x0, symName: '__ZN5alloc7raw_vec19RawVec$LT$T$C$A$GT$8grow_one17h0d4b712cf6e91543E', symObjAddr: 0x509E0, symBinAddr: 0x10004C970, symSize: 0xC0 }
  - { offsetInCU: 0x1FCB9, offset: 0xB4EA7, size: 0x8, addend: 0x0, symName: '__ZN5alloc7raw_vec19RawVec$LT$T$C$A$GT$8grow_one17h4c1c4a9f76f11a4cE', symObjAddr: 0x537C0, symBinAddr: 0x10004F750, symSize: 0xC0 }
  - { offsetInCU: 0x1FDCE, offset: 0xB4FBC, size: 0x8, addend: 0x0, symName: '__ZN5alloc7raw_vec19RawVec$LT$T$C$A$GT$8grow_one17hee3928ff446dc71fE', symObjAddr: 0x53880, symBinAddr: 0x10004F810, symSize: 0xC0 }
  - { offsetInCU: 0x1FF0C, offset: 0xB50FA, size: 0x8, addend: 0x0, symName: '__ZN5alloc7raw_vec19RawVec$LT$T$C$A$GT$8grow_one17h44e512c946a3b2d9E', symObjAddr: 0x5A010, symBinAddr: 0x1000559A0, symSize: 0xC0 }
  - { offsetInCU: 0x201FF, offset: 0xB53ED, size: 0x8, addend: 0x0, symName: '__ZN5alloc7raw_vec20RawVecInner$LT$A$GT$7reserve21do_reserve_and_handle17hdf6e3397ef5edd5aE', symObjAddr: 0x34B30, symBinAddr: 0x10005C2A0, symSize: 0xE0 }
  - { offsetInCU: 0x2039D, offset: 0xB558B, size: 0x8, addend: 0x0, symName: __ZN5alloc7raw_vec11finish_grow17hfec5b5369c7a7876E, symObjAddr: 0x3E080, symBinAddr: 0x10005E8B0, symSize: 0x70 }
  - { offsetInCU: 0x21505, offset: 0xB66F3, size: 0x8, addend: 0x0, symName: '__ZN5alloc4sync16Arc$LT$T$C$A$GT$9drop_slow17h89743fd64ea0b3a4E', symObjAddr: 0x305C0, symBinAddr: 0x100030990, symSize: 0x50 }
  - { offsetInCU: 0x2175E, offset: 0xB694C, size: 0x8, addend: 0x0, symName: '__ZN5alloc4sync16Arc$LT$T$C$A$GT$9drop_slow17h43ca38a693af24a7E', symObjAddr: 0x39920, symBinAddr: 0x1000396E0, symSize: 0x80 }
  - { offsetInCU: 0x21B78, offset: 0xB6D66, size: 0x8, addend: 0x0, symName: '__ZN5alloc4sync16Arc$LT$T$C$A$GT$9drop_slow17h97c18d2e74d8378aE', symObjAddr: 0x3FEF0, symBinAddr: 0x10003D710, symSize: 0x90 }
  - { offsetInCU: 0x21DE0, offset: 0xB6FCE, size: 0x8, addend: 0x0, symName: '__ZN5alloc4sync16Arc$LT$T$C$A$GT$9drop_slow17hf565712f19e13b65E', symObjAddr: 0x49F10, symBinAddr: 0x100045FB0, symSize: 0x60 }
  - { offsetInCU: 0x22039, offset: 0xB7227, size: 0x8, addend: 0x0, symName: '__ZN5alloc4sync16Arc$LT$T$C$A$GT$9drop_slow17h16e7853002e47de7E', symObjAddr: 0x59770, symBinAddr: 0x1000551A0, symSize: 0x20 }
  - { offsetInCU: 0x225D0, offset: 0xB77BE, size: 0x8, addend: 0x0, symName: '__ZN64_$LT$alloc..ffi..c_str..NulError$u20$as$u20$core..fmt..Debug$GT$3fmt17h08d6698725a3c32eE', symObjAddr: 0x597B0, symBinAddr: 0x1000551E0, symSize: 0x3D0 }
  - { offsetInCU: 0x22C48, offset: 0xB7E36, size: 0x8, addend: 0x0, symName: '__ZN5alloc11collections5btree3map25IntoIter$LT$K$C$V$C$A$GT$10dying_next17h81786a54a28e882cE', symObjAddr: 0x4A2E0, symBinAddr: 0x100046380, symSize: 0x1D0 }
  - { offsetInCU: 0x23A68, offset: 0xB8C56, size: 0x8, addend: 0x0, symName: '__ZN5alloc11collections5btree6remove259_$LT$impl$u20$alloc..collections..btree..node..Handle$LT$alloc..collections..btree..node..NodeRef$LT$alloc..collections..btree..node..marker..Mut$C$K$C$V$C$alloc..collections..btree..node..marker..Leaf$GT$$C$alloc..collections..btree..node..marker..KV$GT$$GT$14remove_leaf_kv17h99c902b98b4506fdE', symObjAddr: 0x5BF10, symBinAddr: 0x100057660, symSize: 0x710 }
  - { offsetInCU: 0x24759, offset: 0xB9947, size: 0x8, addend: 0x0, symName: '__ZN5alloc11collections5btree4node208Handle$LT$alloc..collections..btree..node..NodeRef$LT$alloc..collections..btree..node..marker..Mut$C$K$C$V$C$alloc..collections..btree..node..marker..Leaf$GT$$C$alloc..collections..btree..node..marker..KV$GT$5split17h16250a616d61d03cE', symObjAddr: 0x5CFB0, symBinAddr: 0x100058700, symSize: 0x1C0 }
  - { offsetInCU: 0x24B97, offset: 0xB9D85, size: 0x8, addend: 0x0, symName: '__ZN5alloc11collections5btree4node212Handle$LT$alloc..collections..btree..node..NodeRef$LT$alloc..collections..btree..node..marker..Mut$C$K$C$V$C$alloc..collections..btree..node..marker..Internal$GT$$C$alloc..collections..btree..node..marker..KV$GT$5split17he209a41d78b6a30fE', symObjAddr: 0x5D170, symBinAddr: 0x1000588C0, symSize: 0x290 }
  - { offsetInCU: 0x252ED, offset: 0xBA4DB, size: 0x8, addend: 0x0, symName: '__ZN5alloc11collections5btree4node29BalancingContext$LT$K$C$V$GT$15bulk_steal_left17hb3e9766f530f5364E', symObjAddr: 0x5C620, symBinAddr: 0x100057D70, symSize: 0x2D0 }
  - { offsetInCU: 0x25837, offset: 0xBAA25, size: 0x8, addend: 0x0, symName: '__ZN5alloc11collections5btree4node29BalancingContext$LT$K$C$V$GT$8do_merge17ha9af17ed6c2dd999E', symObjAddr: 0x5C8F0, symBinAddr: 0x100058040, symSize: 0x290 }
  - { offsetInCU: 0x25E12, offset: 0xBB000, size: 0x8, addend: 0x0, symName: '__ZN5alloc11collections5btree4node29BalancingContext$LT$K$C$V$GT$16bulk_steal_right17hd879cf6c43dcf108E', symObjAddr: 0x5CB80, symBinAddr: 0x1000582D0, symSize: 0x2B0 }
  - { offsetInCU: 0x27E43, offset: 0xBD031, size: 0x8, addend: 0x0, symName: '__ZN4core3ptr81drop_in_place$LT$core..result..Result$LT$$LP$$RP$$C$std..io..error..Error$GT$$GT$17he08e43355e5414a6E', symObjAddr: 0x30590, symBinAddr: 0x100030970, symSize: 0x20 }
  - { offsetInCU: 0x27EFE, offset: 0xBD0EC, size: 0x8, addend: 0x0, symName: '__ZN4core3ptr55drop_in_place$LT$std..sys..backtrace..BacktraceLock$GT$17he91b31dcc16f2c9bE', symObjAddr: 0x30D00, symBinAddr: 0x100030BF0, symSize: 0x50 }
  - { offsetInCU: 0x27F1C, offset: 0xBD10A, size: 0x8, addend: 0x0, symName: '__ZN4core3ptr55drop_in_place$LT$std..sys..backtrace..BacktraceLock$GT$17he91b31dcc16f2c9bE', symObjAddr: 0x30D00, symBinAddr: 0x100030BF0, symSize: 0x50 }
  - { offsetInCU: 0x27F31, offset: 0xBD11F, size: 0x8, addend: 0x0, symName: '__ZN4core3ptr55drop_in_place$LT$std..sys..backtrace..BacktraceLock$GT$17he91b31dcc16f2c9bE', symObjAddr: 0x30D00, symBinAddr: 0x100030BF0, symSize: 0x50 }
  - { offsetInCU: 0x2803C, offset: 0xBD22A, size: 0x8, addend: 0x0, symName: '__ZN4core3ptr66drop_in_place$LT$std..backtrace_rs..backtrace..libunwind..Bomb$GT$17hcc27d7bee1c76982E', symObjAddr: 0x311A0, symBinAddr: 0x10005C250, symSize: 0x50 }
  - { offsetInCU: 0x28322, offset: 0xBD510, size: 0x8, addend: 0x0, symName: '__ZN4core3ptr70drop_in_place$LT$std..backtrace_rs..symbolize..gimli..stash..Stash$GT$17h58000c53307aef9fE', symObjAddr: 0x34DA0, symBinAddr: 0x100034B60, symSize: 0xB0 }
  - { offsetInCU: 0x289E1, offset: 0xBDBCF, size: 0x8, addend: 0x0, symName: '__ZN4core3ptr65drop_in_place$LT$std..backtrace_rs..symbolize..gimli..Context$GT$17h078f7852093ddf84E', symObjAddr: 0x39B20, symBinAddr: 0x1000398E0, symSize: 0x190 }
  - { offsetInCU: 0x28FA3, offset: 0xBE191, size: 0x8, addend: 0x0, symName: '__ZN4core3ptr275drop_in_place$LT$gimli..read..line..LineRows$LT$gimli..read..endian_slice..EndianSlice$LT$gimli..endianity..LittleEndian$GT$$C$gimli..read..line..IncompleteLineProgram$LT$gimli..read..endian_slice..EndianSlice$LT$gimli..endianity..LittleEndian$GT$$C$usize$GT$$C$usize$GT$$GT$17h3d307644b287c4a5E', symObjAddr: 0x3CE60, symBinAddr: 0x10003A6F0, symSize: 0x70 }
  - { offsetInCU: 0x292A8, offset: 0xBE496, size: 0x8, addend: 0x0, symName: '__ZN4core3ptr65drop_in_place$LT$alloc..vec..Vec$LT$alloc..string..String$GT$$GT$17h529f9726d582187cE', symObjAddr: 0x3D250, symBinAddr: 0x10003AAE0, symSize: 0x70 }
  - { offsetInCU: 0x2944D, offset: 0xBE63B, size: 0x8, addend: 0x0, symName: '__ZN4core3ptr73drop_in_place$LT$alloc..vec..Vec$LT$addr2line..line..LineSequence$GT$$GT$17h4619d3911ac932deE', symObjAddr: 0x3DEF0, symBinAddr: 0x10003B780, symSize: 0x70 }
  - { offsetInCU: 0x295BB, offset: 0xBE7A9, size: 0x8, addend: 0x0, symName: '__ZN4core3ptr77drop_in_place$LT$alloc..boxed..Box$LT$$u5b$alloc..string..String$u5d$$GT$$GT$17h3648eeae800f067cE', symObjAddr: 0x3DF60, symBinAddr: 0x10003B7F0, symSize: 0x50 }
  - { offsetInCU: 0x295D2, offset: 0xBE7C0, size: 0x8, addend: 0x0, symName: '__ZN4core3ptr77drop_in_place$LT$alloc..boxed..Box$LT$$u5b$alloc..string..String$u5d$$GT$$GT$17h3648eeae800f067cE', symObjAddr: 0x3DF60, symBinAddr: 0x10003B7F0, symSize: 0x50 }
  - { offsetInCU: 0x29724, offset: 0xBE912, size: 0x8, addend: 0x0, symName: '__ZN4core3ptr92drop_in_place$LT$core..result..Result$LT$addr2line..line..Lines$C$gimli..read..Error$GT$$GT$17hacac62b0328bbd6dE', symObjAddr: 0x3DFB0, symBinAddr: 0x10003B840, symSize: 0xB0 }
  - { offsetInCU: 0x299A4, offset: 0xBEB92, size: 0x8, addend: 0x0, symName: '__ZN4core3ptr284drop_in_place$LT$core..result..Result$LT$$RF$core..result..Result$LT$addr2line..line..Lines$C$gimli..read..Error$GT$$C$$LP$$RF$core..result..Result$LT$addr2line..line..Lines$C$gimli..read..Error$GT$$C$core..result..Result$LT$addr2line..line..Lines$C$gimli..read..Error$GT$$RP$$GT$$GT$17h91c899d3d0000bb3E', symObjAddr: 0x3E060, symBinAddr: 0x10003B8F0, symSize: 0x20 }
  - { offsetInCU: 0x29C90, offset: 0xBEE7E, size: 0x8, addend: 0x0, symName: '__ZN4core3ptr557drop_in_place$LT$core..result..Result$LT$$RF$core..result..Result$LT$addr2line..function..Function$LT$gimli..read..endian_slice..EndianSlice$LT$gimli..endianity..LittleEndian$GT$$GT$$C$gimli..read..Error$GT$$C$$LP$$RF$core..result..Result$LT$addr2line..function..Function$LT$gimli..read..endian_slice..EndianSlice$LT$gimli..endianity..LittleEndian$GT$$GT$$C$gimli..read..Error$GT$$C$core..result..Result$LT$addr2line..function..Function$LT$gimli..read..endian_slice..EndianSlice$LT$gimli..endianity..LittleEndian$GT$$GT$$C$gimli..read..Error$GT$$RP$$GT$$GT$17hbef0a88e0afcd1a1E', symObjAddr: 0x454B0, symBinAddr: 0x100041550, symSize: 0x50 }
  - { offsetInCU: 0x29EB4, offset: 0xBF0A2, size: 0x8, addend: 0x0, symName: '__ZN4core3ptr138drop_in_place$LT$addr2line..function..LazyFunction$LT$gimli..read..endian_slice..EndianSlice$LT$gimli..endianity..LittleEndian$GT$$GT$$GT$17h5fc42bb8345e68c0E', symObjAddr: 0x48B00, symBinAddr: 0x100044BA0, symSize: 0x50 }
  - { offsetInCU: 0x29ECB, offset: 0xBF0B9, size: 0x8, addend: 0x0, symName: '__ZN4core3ptr138drop_in_place$LT$addr2line..function..LazyFunction$LT$gimli..read..endian_slice..EndianSlice$LT$gimli..endianity..LittleEndian$GT$$GT$$GT$17h5fc42bb8345e68c0E', symObjAddr: 0x48B00, symBinAddr: 0x100044BA0, symSize: 0x50 }
  - { offsetInCU: 0x29EE0, offset: 0xBF0CE, size: 0x8, addend: 0x0, symName: '__ZN4core3ptr138drop_in_place$LT$addr2line..function..LazyFunction$LT$gimli..read..endian_slice..EndianSlice$LT$gimli..endianity..LittleEndian$GT$$GT$$GT$17h5fc42bb8345e68c0E', symObjAddr: 0x48B00, symBinAddr: 0x100044BA0, symSize: 0x50 }
  - { offsetInCU: 0x29EF5, offset: 0xBF0E3, size: 0x8, addend: 0x0, symName: '__ZN4core3ptr138drop_in_place$LT$addr2line..function..LazyFunction$LT$gimli..read..endian_slice..EndianSlice$LT$gimli..endianity..LittleEndian$GT$$GT$$GT$17h5fc42bb8345e68c0E', symObjAddr: 0x48B00, symBinAddr: 0x100044BA0, symSize: 0x50 }
  - { offsetInCU: 0x2A02B, offset: 0xBF219, size: 0x8, addend: 0x0, symName: '__ZN4core3ptr161drop_in_place$LT$alloc..vec..Vec$LT$addr2line..function..LazyFunction$LT$gimli..read..endian_slice..EndianSlice$LT$gimli..endianity..LittleEndian$GT$$GT$$GT$$GT$17heee1fe949b22e6b1E', symObjAddr: 0x48B50, symBinAddr: 0x100044BF0, symSize: 0x90 }
  - { offsetInCU: 0x2A271, offset: 0xBF45F, size: 0x8, addend: 0x0, symName: '__ZN4core3ptr173drop_in_place$LT$alloc..boxed..Box$LT$$u5b$addr2line..function..LazyFunction$LT$gimli..read..endian_slice..EndianSlice$LT$gimli..endianity..LittleEndian$GT$$GT$$u5d$$GT$$GT$17h11ac92344b317af2E', symObjAddr: 0x48BE0, symBinAddr: 0x100044C80, symSize: 0x70 }
  - { offsetInCU: 0x2A288, offset: 0xBF476, size: 0x8, addend: 0x0, symName: '__ZN4core3ptr173drop_in_place$LT$alloc..boxed..Box$LT$$u5b$addr2line..function..LazyFunction$LT$gimli..read..endian_slice..EndianSlice$LT$gimli..endianity..LittleEndian$GT$$GT$$u5d$$GT$$GT$17h11ac92344b317af2E', symObjAddr: 0x48BE0, symBinAddr: 0x100044C80, symSize: 0x70 }
  - { offsetInCU: 0x2A489, offset: 0xBF677, size: 0x8, addend: 0x0, symName: '__ZN4core3ptr184drop_in_place$LT$core..result..Result$LT$addr2line..function..Functions$LT$gimli..read..endian_slice..EndianSlice$LT$gimli..endianity..LittleEndian$GT$$GT$$C$gimli..read..Error$GT$$GT$17h85eedc1f56c95de9E', symObjAddr: 0x48C50, symBinAddr: 0x100044CF0, symSize: 0xA0 }
  - { offsetInCU: 0x2A72A, offset: 0xBF918, size: 0x8, addend: 0x0, symName: '__ZN4core3ptr560drop_in_place$LT$core..result..Result$LT$$RF$core..result..Result$LT$addr2line..function..Functions$LT$gimli..read..endian_slice..EndianSlice$LT$gimli..endianity..LittleEndian$GT$$GT$$C$gimli..read..Error$GT$$C$$LP$$RF$core..result..Result$LT$addr2line..function..Functions$LT$gimli..read..endian_slice..EndianSlice$LT$gimli..endianity..LittleEndian$GT$$GT$$C$gimli..read..Error$GT$$C$core..result..Result$LT$addr2line..function..Functions$LT$gimli..read..endian_slice..EndianSlice$LT$gimli..endianity..LittleEndian$GT$$GT$$C$gimli..read..Error$GT$$RP$$GT$$GT$17h0581293bc2c96b38E', symObjAddr: 0x48CF0, symBinAddr: 0x100044D90, symSize: 0x20 }
  - { offsetInCU: 0x2A83A, offset: 0xBFA28, size: 0x8, addend: 0x0, symName: '__ZN4core3ptr701drop_in_place$LT$core..result..Result$LT$$RF$core..result..Result$LT$core..option..Option$LT$alloc..boxed..Box$LT$addr2line..unit..DwoUnit$LT$gimli..read..endian_slice..EndianSlice$LT$gimli..endianity..LittleEndian$GT$$GT$$GT$$GT$$C$gimli..read..Error$GT$$C$$LP$$RF$core..result..Result$LT$core..option..Option$LT$alloc..boxed..Box$LT$addr2line..unit..DwoUnit$LT$gimli..read..endian_slice..EndianSlice$LT$gimli..endianity..LittleEndian$GT$$GT$$GT$$GT$$C$gimli..read..Error$GT$$C$core..result..Result$LT$core..option..Option$LT$alloc..boxed..Box$LT$addr2line..unit..DwoUnit$LT$gimli..read..endian_slice..EndianSlice$LT$gimli..endianity..LittleEndian$GT$$GT$$GT$$GT$$C$gimli..read..Error$GT$$RP$$GT$$GT$17h83f59475423f07e2E', symObjAddr: 0x49E10, symBinAddr: 0x100045EB0, symSize: 0x10 }
  - { offsetInCU: 0x2A894, offset: 0xBFA82, size: 0x8, addend: 0x0, symName: '__ZN4core3ptr231drop_in_place$LT$core..result..Result$LT$core..option..Option$LT$alloc..boxed..Box$LT$addr2line..unit..DwoUnit$LT$gimli..read..endian_slice..EndianSlice$LT$gimli..endianity..LittleEndian$GT$$GT$$GT$$GT$$C$gimli..read..Error$GT$$GT$17h9e234a89e89b92e0E', symObjAddr: 0x49E20, symBinAddr: 0x100045EC0, symSize: 0xA0 }
  - { offsetInCU: 0x2AAC4, offset: 0xBFCB2, size: 0x8, addend: 0x0, symName: '__ZN4core3ptr137drop_in_place$LT$gimli..read..dwarf..Unit$LT$gimli..read..endian_slice..EndianSlice$LT$gimli..endianity..LittleEndian$GT$$C$usize$GT$$GT$17h85e765ab9df54bd9E', symObjAddr: 0x49EC0, symBinAddr: 0x100045F60, symSize: 0x50 }
  - { offsetInCU: 0x2AB69, offset: 0xBFD57, size: 0x8, addend: 0x0, symName: '__ZN4core3ptr181drop_in_place$LT$core..option..Option$LT$gimli..read..line..IncompleteLineProgram$LT$gimli..read..endian_slice..EndianSlice$LT$gimli..endianity..LittleEndian$GT$$C$usize$GT$$GT$$GT$17h1ac4b10864c331e5E', symObjAddr: 0x49F70, symBinAddr: 0x100046010, symSize: 0x70 }
  - { offsetInCU: 0x2AEEB, offset: 0xC00D9, size: 0x8, addend: 0x0, symName: '__ZN4core3ptr55drop_in_place$LT$gimli..read..abbrev..Abbreviations$GT$17h6931c1d493804e8cE', symObjAddr: 0x49FE0, symBinAddr: 0x100046080, symSize: 0x240 }
  - { offsetInCU: 0x2B696, offset: 0xC0884, size: 0x8, addend: 0x0, symName: '__ZN4core3ptr60drop_in_place$LT$gimli..read..abbrev..AbbreviationsCache$GT$17h249d283c11feb536E', symObjAddr: 0x4A220, symBinAddr: 0x1000462C0, symSize: 0xC0 }
  - { offsetInCU: 0x2B843, offset: 0xC0A31, size: 0x8, addend: 0x0, symName: '__ZN4core3ptr280drop_in_place$LT$$LT$alloc..collections..btree..map..IntoIter$LT$K$C$V$C$A$GT$$u20$as$u20$core..ops..drop..Drop$GT$..drop..DropGuard$LT$u64$C$core..result..Result$LT$alloc..sync..Arc$LT$gimli..read..abbrev..Abbreviations$GT$$C$gimli..read..Error$GT$$C$alloc..alloc..Global$GT$$GT$17h5a4ec71fd6d71464E', symObjAddr: 0x4A4B0, symBinAddr: 0x100046550, symSize: 0x70 }
  - { offsetInCU: 0x2B97F, offset: 0xC0B6D, size: 0x8, addend: 0x0, symName: '__ZN4core3ptr130drop_in_place$LT$addr2line..unit..ResUnits$LT$gimli..read..endian_slice..EndianSlice$LT$gimli..endianity..LittleEndian$GT$$GT$$GT$17h7b0e330ce0849dbfE', symObjAddr: 0x4A980, symBinAddr: 0x1000469A0, symSize: 0xB0 }
  - { offsetInCU: 0x2BB29, offset: 0xC0D17, size: 0x8, addend: 0x0, symName: '__ZN4core3ptr130drop_in_place$LT$addr2line..unit..SupUnits$LT$gimli..read..endian_slice..EndianSlice$LT$gimli..endianity..LittleEndian$GT$$GT$$GT$17h00766ff92efc9696E', symObjAddr: 0x4AA30, symBinAddr: 0x100046A50, symSize: 0xD0 }
  - { offsetInCU: 0x2BCC7, offset: 0xC0EB5, size: 0x8, addend: 0x0, symName: '__ZN4core3ptr71drop_in_place$LT$std..backtrace_rs..symbolize..gimli..macho..Object$GT$17h3b8b54ad6a9205abE', symObjAddr: 0x4AB00, symBinAddr: 0x100046B20, symSize: 0x90 }
  - { offsetInCU: 0x2BFF8, offset: 0xC11E6, size: 0x8, addend: 0x0, symName: '__ZN4core3ptr93drop_in_place$LT$core..option..Option$LT$std..backtrace_rs..symbolize..gimli..Mapping$GT$$GT$17ha1e4da26d0d8d0b7E', symObjAddr: 0x4AB90, symBinAddr: 0x100046BB0, symSize: 0x70 }
  - { offsetInCU: 0x2C079, offset: 0xC1267, size: 0x8, addend: 0x0, symName: '__ZN4core3ptr131drop_in_place$LT$$u5b$core..option..Option$LT$core..option..Option$LT$std..backtrace_rs..symbolize..gimli..Mapping$GT$$GT$$u5d$$GT$17hf36ac2b84fd59a67E', symObjAddr: 0x4AC00, symBinAddr: 0x100046C20, symSize: 0x100 }
  - { offsetInCU: 0x2C123, offset: 0xC1311, size: 0x8, addend: 0x0, symName: '__ZN4core3ptr129drop_in_place$LT$addr2line..unit..SupUnit$LT$gimli..read..endian_slice..EndianSlice$LT$gimli..endianity..LittleEndian$GT$$GT$$GT$17he82c5002973b46daE', symObjAddr: 0x4AD00, symBinAddr: 0x100046D20, symSize: 0x50 }
  - { offsetInCU: 0x2C223, offset: 0xC1411, size: 0x8, addend: 0x0, symName: '__ZN4core3ptr129drop_in_place$LT$addr2line..unit..ResUnit$LT$gimli..read..endian_slice..EndianSlice$LT$gimli..endianity..LittleEndian$GT$$GT$$GT$17h62cb2d615ab08114E', symObjAddr: 0x4AD50, symBinAddr: 0x100046D70, symSize: 0xE0 }
  - { offsetInCU: 0x2C47D, offset: 0xC166B, size: 0x8, addend: 0x0, symName: '__ZN4core3ptr42drop_in_place$LT$std..io..error..Error$GT$17ha5b456bd08fde027E', symObjAddr: 0x4AF00, symBinAddr: 0x100046F20, symSize: 0x80 }
  - { offsetInCU: 0x2C6F3, offset: 0xC18E1, size: 0x8, addend: 0x0, symName: '__ZN4core3ptr42drop_in_place$LT$alloc..string..String$GT$17h79341b0195f15698E', symObjAddr: 0x4B660, symBinAddr: 0x100047680, symSize: 0x20 }
  - { offsetInCU: 0x2C7CE, offset: 0xC19BC, size: 0x8, addend: 0x0, symName: '__ZN4core3ptr82drop_in_place$LT$alloc..sync..ArcInner$LT$std..sys..fs..unix..InnerReadDir$GT$$GT$17hb4e789401272390dE', symObjAddr: 0x4B7A0, symBinAddr: 0x100047730, symSize: 0x50 }
  - { offsetInCU: 0x2C9C6, offset: 0xC1BB4, size: 0x8, addend: 0x0, symName: '__ZN4core3ptr159drop_in_place$LT$alloc..sync..ArcInner$LT$gimli..read..dwarf..Dwarf$LT$gimli..read..endian_slice..EndianSlice$LT$gimli..endianity..LittleEndian$GT$$GT$$GT$$GT$17h7ca43585cc23cae8E', symObjAddr: 0x4B960, symBinAddr: 0x1000478F0, symSize: 0x60 }
  - { offsetInCU: 0x2CA77, offset: 0xC1C65, size: 0x8, addend: 0x0, symName: '__ZN4core3ptr152drop_in_place$LT$alloc..vec..Vec$LT$addr2line..unit..ResUnit$LT$gimli..read..endian_slice..EndianSlice$LT$gimli..endianity..LittleEndian$GT$$GT$$GT$$GT$17h316c68713b28b554E', symObjAddr: 0x4EF00, symBinAddr: 0x10004AE90, symSize: 0xB0 }
  - { offsetInCU: 0x2CC0E, offset: 0xC1DFC, size: 0x8, addend: 0x0, symName: '__ZN4core3ptr152drop_in_place$LT$alloc..vec..Vec$LT$addr2line..unit..SupUnit$LT$gimli..read..endian_slice..EndianSlice$LT$gimli..endianity..LittleEndian$GT$$GT$$GT$$GT$17hf5cf2e99cd9b9ae4E', symObjAddr: 0x4EFB0, symBinAddr: 0x10004AF40, symSize: 0xE0 }
  - { offsetInCU: 0x2CE2E, offset: 0xC201C, size: 0x8, addend: 0x0, symName: '__ZN4core3ptr123drop_in_place$LT$addr2line..Context$LT$gimli..read..endian_slice..EndianSlice$LT$gimli..endianity..LittleEndian$GT$$GT$$GT$17h20d6a1e3e16f8512E', symObjAddr: 0x4F470, symBinAddr: 0x10004B400, symSize: 0x60 }
  - { offsetInCU: 0x2D069, offset: 0xC2257, size: 0x8, addend: 0x0, symName: '__ZN4core3ptr144drop_in_place$LT$alloc..vec..Vec$LT$core..option..Option$LT$core..option..Option$LT$std..backtrace_rs..symbolize..gimli..Mapping$GT$$GT$$GT$$GT$17h799516582fc748adE', symObjAddr: 0x531D0, symBinAddr: 0x10004F160, symSize: 0x60 }
  - { offsetInCU: 0x2D24F, offset: 0xC243D, size: 0x8, addend: 0x0, symName: '__ZN4core3ptr44drop_in_place$LT$object..read..ObjectMap$GT$17h4f4dd000100c3d72E', symObjAddr: 0x53940, symBinAddr: 0x10004F8D0, symSize: 0x40 }
  - { offsetInCU: 0x2D3B8, offset: 0xC25A6, size: 0x8, addend: 0x0, symName: '__ZN4core3ptr72drop_in_place$LT$core..option..Option$LT$object..read..ObjectMap$GT$$GT$17ha96e239145d40740E', symObjAddr: 0x53980, symBinAddr: 0x10004F910, symSize: 0x40 }
  - { offsetInCU: 0x2D796, offset: 0xC2984, size: 0x8, addend: 0x0, symName: '__ZN4core3ptr119drop_in_place$LT$std..io..default_write_fmt..Adapter$LT$std..io..cursor..Cursor$LT$$RF$mut$u20$$u5b$u8$u5d$$GT$$GT$$GT$17h94c6ee654dd5b3e7E', symObjAddr: 0x58760, symBinAddr: 0x1000544A0, symSize: 0x20 }
  - { offsetInCU: 0x2D7B8, offset: 0xC29A6, size: 0x8, addend: 0x0, symName: '__ZN4core3ptr64drop_in_place$LT$std..sys..pal..unix..sync..mutex..AttrGuard$GT$17ha80c2ca9b91c98f5E', symObjAddr: 0x58C40, symBinAddr: 0x100054980, symSize: 0x3D }
  - { offsetInCU: 0x2D858, offset: 0xC2A46, size: 0x8, addend: 0x0, symName: '__ZN4core3ptr79drop_in_place$LT$std..sync..poison..rwlock..RwLockReadGuard$LT$$LP$$RP$$GT$$GT$17h09adeddf4e015836E', symObjAddr: 0x59360, symBinAddr: 0x100054F80, symSize: 0x50 }
  - { offsetInCU: 0x2D945, offset: 0xC2B33, size: 0x8, addend: 0x0, symName: '__ZN4core3ptr128drop_in_place$LT$core..result..Result$LT$$RF$std..thread..Thread$C$$LP$$RF$std..thread..Thread$C$std..thread..Thread$RP$$GT$$GT$17hf629f975d0b6053aE', symObjAddr: 0x59750, symBinAddr: 0x100055180, symSize: 0x20 }
  - { offsetInCU: 0x2DA09, offset: 0xC2BF7, size: 0x8, addend: 0x0, symName: '__ZN4core3ptr48drop_in_place$LT$alloc..ffi..c_str..NulError$GT$17heb7856d9d14b9f5cE', symObjAddr: 0x59790, symBinAddr: 0x1000551C0, symSize: 0x20 }
  - { offsetInCU: 0x2DC50, offset: 0xC2E3E, size: 0x8, addend: 0x0, symName: '__ZN4core3ptr95drop_in_place$LT$std..io..buffered..linewriter..LineWriter$LT$std..io..stdio..StdoutRaw$GT$$GT$17ha483db45f8c1d8e6E', symObjAddr: 0x5BC10, symBinAddr: 0x100057360, symSize: 0x2B0 }
  - { offsetInCU: 0x2E5EF, offset: 0xC37DD, size: 0x8, addend: 0x0, symName: '__ZN4core3ptr194drop_in_place$LT$core..result..Result$LT$std..sync..poison..mutex..MutexGuard$LT$$LP$$RP$$GT$$C$std..sync..poison..PoisonError$LT$std..sync..poison..mutex..MutexGuard$LT$$LP$$RP$$GT$$GT$$GT$$GT$17hc25c5b1b852b81a1E', symObjAddr: 0x5BEC0, symBinAddr: 0x100057610, symSize: 0x50 }
  - { offsetInCU: 0x2E6FF, offset: 0xC38ED, size: 0x8, addend: 0x0, symName: '__ZN4core3ptr90drop_in_place$LT$std..io..buffered..bufwriter..BufWriter$LT$W$GT$..flush_buf..BufGuard$GT$17h9107d687c93298cfE', symObjAddr: 0x5CE30, symBinAddr: 0x100058580, symSize: 0x60 }
  - { offsetInCU: 0x2E8CA, offset: 0xC3AB8, size: 0x8, addend: 0x0, symName: '__ZN4core3ptr70drop_in_place$LT$alloc..vec..Vec$LT$std..ffi..os_str..OsString$GT$$GT$17h2ab678108aa71199E', symObjAddr: 0x5D5C0, symBinAddr: 0x100058D10, symSize: 0x70 }
  - { offsetInCU: 0x2EAAE, offset: 0xC3C9C, size: 0x8, addend: 0x0, symName: '__ZN4core3ptr77drop_in_place$LT$std..panicking..begin_panic_handler..FormatStringPayload$GT$17h4b958cfcdeffb161E', symObjAddr: 0x5DDC0, symBinAddr: 0x100059470, symSize: 0x20 }
  - { offsetInCU: 0x3233F, offset: 0xC752D, size: 0x8, addend: 0x0, symName: __ZN4core5slice4sort8unstable7ipnsort17h988b0626094ff52aE, symObjAddr: 0x53230, symBinAddr: 0x10004F1C0, symSize: 0xE0 }
  - { offsetInCU: 0x324E6, offset: 0xC76D4, size: 0x8, addend: 0x0, symName: __ZN4core5slice4sort8unstable7ipnsort17h2dd29f09af3e2bafE, symObjAddr: 0x53310, symBinAddr: 0x10004F2A0, symSize: 0x180 }
  - { offsetInCU: 0x3281E, offset: 0xC7A0C, size: 0x8, addend: 0x0, symName: __ZN4core5slice4sort8unstable9quicksort9quicksort17h2a4dc11322c8919eE, symObjAddr: 0x54CF0, symBinAddr: 0x100050C80, symSize: 0x750 }
  - { offsetInCU: 0x33405, offset: 0xC85F3, size: 0x8, addend: 0x0, symName: __ZN4core5slice4sort8unstable9quicksort9quicksort17h4dcf78a02edecf0bE, symObjAddr: 0x55E70, symBinAddr: 0x100051E00, symSize: 0x4F0 }
  - { offsetInCU: 0x33C35, offset: 0xC8E23, size: 0x8, addend: 0x0, symName: __ZN4core5slice4sort8unstable8heapsort8heapsort17h8dc34faaeb4e17baE, symObjAddr: 0x55970, symBinAddr: 0x100051900, symSize: 0x1D0 }
  - { offsetInCU: 0x33F3A, offset: 0xC9128, size: 0x8, addend: 0x0, symName: __ZN4core5slice4sort8unstable8heapsort8heapsort17h9a68e8b7a55e5942E, symObjAddr: 0x56990, symBinAddr: 0x100052920, symSize: 0x130 }
  - { offsetInCU: 0x34198, offset: 0xC9386, size: 0x8, addend: 0x0, symName: __ZN4core5slice4sort6stable14driftsort_main17h95e32c94dcad972aE, symObjAddr: 0x3CED0, symBinAddr: 0x10003A760, symSize: 0x140 }
  - { offsetInCU: 0x345FF, offset: 0xC97ED, size: 0x8, addend: 0x0, symName: __ZN4core5slice4sort6stable5drift4sort17h2f7ba81e8a4294ecE, symObjAddr: 0x3E300, symBinAddr: 0x10003BB20, symSize: 0x690 }
  - { offsetInCU: 0x34DC6, offset: 0xC9FB4, size: 0x8, addend: 0x0, symName: __ZN4core5slice4sort6stable5drift4sort17h08324856f49d2382E, symObjAddr: 0x459B0, symBinAddr: 0x100041A50, symSize: 0x6F0 }
  - { offsetInCU: 0x35565, offset: 0xCA753, size: 0x8, addend: 0x0, symName: __ZN4core5slice4sort6stable5drift4sort17h3d646b940cbe45cdE, symObjAddr: 0x48D10, symBinAddr: 0x100044DB0, symSize: 0x670 }
  - { offsetInCU: 0x35D1C, offset: 0xCAF0A, size: 0x8, addend: 0x0, symName: __ZN4core5slice4sort6stable5drift4sort17h8be8d00c08bb34b1E, symObjAddr: 0x50AA0, symBinAddr: 0x10004CA30, symSize: 0x690 }
  - { offsetInCU: 0x364E3, offset: 0xCB6D1, size: 0x8, addend: 0x0, symName: __ZN4core5slice4sort6stable5drift4sort17hfd8a375114d9990bE, symObjAddr: 0x51CA0, symBinAddr: 0x10004DC30, symSize: 0x630 }
  - { offsetInCU: 0x36C8C, offset: 0xCBE7A, size: 0x8, addend: 0x0, symName: __ZN4core5slice4sort6stable5drift4sort17h35b9d19cf846f449E, symObjAddr: 0x539C0, symBinAddr: 0x10004F950, symSize: 0x6B0 }
  - { offsetInCU: 0x376AF, offset: 0xCC89D, size: 0x8, addend: 0x0, symName: __ZN4core5slice4sort6stable9quicksort9quicksort17h2b9c9f836ae425a5E, symObjAddr: 0x3E990, symBinAddr: 0x10003C1B0, symSize: 0xAC0 }
  - { offsetInCU: 0x38386, offset: 0xCD574, size: 0x8, addend: 0x0, symName: __ZN4core5slice4sort6stable9quicksort9quicksort17hb1333c142e51587dE, symObjAddr: 0x460A0, symBinAddr: 0x100042140, symSize: 0x9C0 }
  - { offsetInCU: 0x38BAB, offset: 0xCDD99, size: 0x8, addend: 0x0, symName: __ZN4core5slice4sort6stable9quicksort9quicksort17h17cf67ec063929cdE, symObjAddr: 0x49380, symBinAddr: 0x100045420, symSize: 0x9D0 }
  - { offsetInCU: 0x398B4, offset: 0xCEAA2, size: 0x8, addend: 0x0, symName: __ZN4core5slice4sort6stable9quicksort9quicksort17h520a09dea117d104E, symObjAddr: 0x51130, symBinAddr: 0x10004D0C0, symSize: 0xAB0 }
  - { offsetInCU: 0x3A57B, offset: 0xCF769, size: 0x8, addend: 0x0, symName: __ZN4core5slice4sort6stable9quicksort9quicksort17h2ebc5541a9b74a41E, symObjAddr: 0x522D0, symBinAddr: 0x10004E260, symSize: 0xA70 }
  - { offsetInCU: 0x3B8C4, offset: 0xD0AB2, size: 0x8, addend: 0x0, symName: __ZN4core5slice4sort6stable9quicksort9quicksort17h99cbb7d01d69e4f5E, symObjAddr: 0x54070, symBinAddr: 0x100050000, symSize: 0xBC0 }
  - { offsetInCU: 0x3C582, offset: 0xD1770, size: 0x8, addend: 0x0, symName: __ZN4core5slice4sort6stable14driftsort_main17h5e598497faa783ebE, symObjAddr: 0x445A0, symBinAddr: 0x100040640, symSize: 0x120 }
  - { offsetInCU: 0x3C8A5, offset: 0xD1A93, size: 0x8, addend: 0x0, symName: __ZN4core5slice4sort6stable14driftsort_main17h7240f8c3251853a4E, symObjAddr: 0x48860, symBinAddr: 0x100044900, symSize: 0x120 }
  - { offsetInCU: 0x3CBC8, offset: 0xD1DB6, size: 0x8, addend: 0x0, symName: __ZN4core5slice4sort6stable14driftsort_main17hd4c9d5c2955e6a1aE, symObjAddr: 0x4BD20, symBinAddr: 0x100047CB0, symSize: 0x120 }
  - { offsetInCU: 0x3CEEB, offset: 0xD20D9, size: 0x8, addend: 0x0, symName: __ZN4core5slice4sort6stable14driftsort_main17h17ddd4f9f71567ccE, symObjAddr: 0x4C4A0, symBinAddr: 0x100048430, symSize: 0x120 }
  - { offsetInCU: 0x3D20E, offset: 0xD23FC, size: 0x8, addend: 0x0, symName: __ZN4core5slice4sort6stable14driftsort_main17h60a1e7a37a9f6521E, symObjAddr: 0x535B0, symBinAddr: 0x10004F540, symSize: 0x120 }
  - { offsetInCU: 0x3D606, offset: 0xD27F4, size: 0x8, addend: 0x0, symName: __ZN4core5slice4sort6shared9smallsort25insertion_sort_shift_left17h5b9d0e21ca6ced49E, symObjAddr: 0x3D010, symBinAddr: 0x10003A8A0, symSize: 0xC0 }
  - { offsetInCU: 0x3D7E9, offset: 0xD29D7, size: 0x8, addend: 0x0, symName: __ZN4core5slice4sort6shared9smallsort25insertion_sort_shift_left17hd690f9a6762b80e2E, symObjAddr: 0x446C0, symBinAddr: 0x100040760, symSize: 0xF0 }
  - { offsetInCU: 0x3D93D, offset: 0xD2B2B, size: 0x8, addend: 0x0, symName: __ZN4core5slice4sort6shared9smallsort12sort4_stable17h2faa247f74b6076bE, symObjAddr: 0x46A60, symBinAddr: 0x100042B00, symSize: 0x1B0 }
  - { offsetInCU: 0x3DBE1, offset: 0xD2DCF, size: 0x8, addend: 0x0, symName: __ZN4core5slice4sort6shared9smallsort12sort8_stable17hfd8ce95ce5893098E, symObjAddr: 0x52D40, symBinAddr: 0x10004ECD0, symSize: 0x3E0 }
  - { offsetInCU: 0x3E256, offset: 0xD3444, size: 0x8, addend: 0x0, symName: __ZN4core5slice4sort6shared9smallsort25insertion_sort_shift_left17hae1867e9f9bb52f6E, symObjAddr: 0x53490, symBinAddr: 0x10004F420, symSize: 0x120 }
  - { offsetInCU: 0x3E41A, offset: 0xD3608, size: 0x8, addend: 0x0, symName: __ZN4core5slice4sort6shared9smallsort25insertion_sort_shift_left17hb0be3d2554bb809bE, symObjAddr: 0x536D0, symBinAddr: 0x10004F660, symSize: 0xF0 }
  - { offsetInCU: 0x3E5F7, offset: 0xD37E5, size: 0x8, addend: 0x0, symName: __ZN4core5slice4sort6shared9smallsort18small_sort_general17h3e10959e99ae5d7aE, symObjAddr: 0x55440, symBinAddr: 0x1000513D0, symSize: 0x530 }
  - { offsetInCU: 0x3EAF2, offset: 0xD3CE0, size: 0x8, addend: 0x0, symName: __ZN4core5slice4sort6shared9smallsort12sort4_stable17hb0de6bf3b3a5dab3E, symObjAddr: 0x55C80, symBinAddr: 0x100051C10, symSize: 0x1F0 }
  - { offsetInCU: 0x3EF0A, offset: 0xD40F8, size: 0x8, addend: 0x0, symName: __ZN4core5slice4sort6shared9smallsort18small_sort_general17hf51130ae9be712bfE, symObjAddr: 0x56360, symBinAddr: 0x1000522F0, symSize: 0x630 }
  - { offsetInCU: 0x3F716, offset: 0xD4904, size: 0x8, addend: 0x0, symName: __ZN4core5slice4sort6shared5pivot11median3_rec17h1cdd2ab34e6835f2E, symObjAddr: 0x3F450, symBinAddr: 0x10003CC70, symSize: 0xC0 }
  - { offsetInCU: 0x3F829, offset: 0xD4A17, size: 0x8, addend: 0x0, symName: __ZN4core5slice4sort6shared5pivot11median3_rec17hf631222dcecbf3e4E, symObjAddr: 0x46C10, symBinAddr: 0x100042CB0, symSize: 0x110 }
  - { offsetInCU: 0x3F945, offset: 0xD4B33, size: 0x8, addend: 0x0, symName: __ZN4core5slice4sort6shared5pivot11median3_rec17h2cec63c4dbed855cE, symObjAddr: 0x49D50, symBinAddr: 0x100045DF0, symSize: 0xC0 }
  - { offsetInCU: 0x3FA58, offset: 0xD4C46, size: 0x8, addend: 0x0, symName: __ZN4core5slice4sort6shared5pivot11median3_rec17h3aa95efb420d394fE, symObjAddr: 0x51BE0, symBinAddr: 0x10004DB70, symSize: 0xC0 }
  - { offsetInCU: 0x3FB6B, offset: 0xD4D59, size: 0x8, addend: 0x0, symName: __ZN4core5slice4sort6shared5pivot11median3_rec17h88b6849d34205b90E, symObjAddr: 0x53120, symBinAddr: 0x10004F0B0, symSize: 0xB0 }
  - { offsetInCU: 0x3FCAA, offset: 0xD4E98, size: 0x8, addend: 0x0, symName: __ZN4core5slice4sort6shared5pivot11median3_rec17h1971548d365b846bE, symObjAddr: 0x54C30, symBinAddr: 0x100050BC0, symSize: 0xC0 }
  - { offsetInCU: 0x3FDBD, offset: 0xD4FAB, size: 0x8, addend: 0x0, symName: __ZN4core5slice4sort6shared5pivot11median3_rec17h6caf57977d2f7df8E, symObjAddr: 0x55B40, symBinAddr: 0x100051AD0, symSize: 0x140 }
  - { offsetInCU: 0x3FFFE, offset: 0xD51EC, size: 0x8, addend: 0x0, symName: __ZN4core5slice4sort6shared5pivot11median3_rec17h81ec6573ad5ac097E, symObjAddr: 0x56AC0, symBinAddr: 0x100052A50, symSize: 0xC0 }
  - { offsetInCU: 0x41F8E, offset: 0xD717C, size: 0x8, addend: 0x0, symName: __ZN4core3ops8function2Fn4call17hdacb0f4e9419b740E, symObjAddr: 0x5D680, symBinAddr: 0x100058DD0, symSize: 0xA0 }
  - { offsetInCU: 0x420AC, offset: 0xD729A, size: 0x8, addend: 0x0, symName: __ZN4core3ops8function2Fn4call17h3699df9525dc729fE, symObjAddr: 0x5D960, symBinAddr: 0x100059010, symSize: 0xA0 }
  - { offsetInCU: 0x421EA, offset: 0xD73D8, size: 0x8, addend: 0x0, symName: '__ZN4core3ops8function6FnOnce40call_once$u7b$$u7b$vtable.shim$u7d$$u7d$17hdbf928a164d5c614E', symObjAddr: 0x311F0, symBinAddr: 0x100031090, symSize: 0x10 }
  - { offsetInCU: 0x422B4, offset: 0xD74A2, size: 0x8, addend: 0x0, symName: '__ZN4core3ops8function6FnOnce40call_once$u7b$$u7b$vtable.shim$u7d$$u7d$17h3d05746f9159b865E', symObjAddr: 0x57D00, symBinAddr: 0x100053A40, symSize: 0x90 }
  - { offsetInCU: 0x42551, offset: 0xD773F, size: 0x8, addend: 0x0, symName: '__ZN4core3ops8function6FnOnce40call_once$u7b$$u7b$vtable.shim$u7d$$u7d$17hb427c0225fa6a485E', symObjAddr: 0x59FD0, symBinAddr: 0x100055960, symSize: 0x10 }
  - { offsetInCU: 0x425A1, offset: 0xD778F, size: 0x8, addend: 0x0, symName: '__ZN4core3ops8function6FnOnce40call_once$u7b$$u7b$vtable.shim$u7d$$u7d$17h75e10c705345c477E', symObjAddr: 0x59FF0, symBinAddr: 0x100055980, symSize: 0x10 }
  - { offsetInCU: 0x425F1, offset: 0xD77DF, size: 0x8, addend: 0x0, symName: '__ZN4core3ops8function6FnOnce40call_once$u7b$$u7b$vtable.shim$u7d$$u7d$17h47e29bf59209cf99E', symObjAddr: 0x5B550, symBinAddr: 0x100056D00, symSize: 0x20 }
  - { offsetInCU: 0x4262C, offset: 0xD781A, size: 0x8, addend: 0x0, symName: '__ZN4core3ops8function6FnOnce40call_once$u7b$$u7b$vtable.shim$u7d$$u7d$17hb8615bb6feba15e6E', symObjAddr: 0x5CE90, symBinAddr: 0x1000585E0, symSize: 0x90 }
  - { offsetInCU: 0x42A2F, offset: 0xD7C1D, size: 0x8, addend: 0x0, symName: '__ZN4core4cell4once17OnceCell$LT$T$GT$8try_init17hddb53c94df19671aE', symObjAddr: 0x30610, symBinAddr: 0x10005BD70, symSize: 0x100 }
  - { offsetInCU: 0x42CE8, offset: 0xD7ED6, size: 0x8, addend: 0x0, symName: '__ZN4core4cell4once17OnceCell$LT$T$GT$8try_init17h05b3bf9c51998168E', symObjAddr: 0x3A870, symBinAddr: 0x10005C380, symSize: 0x2530 }
  - { offsetInCU: 0x461D9, offset: 0xDB3C7, size: 0x8, addend: 0x0, symName: '__ZN4core4cell4once17OnceCell$LT$T$GT$8try_init17h73c8c6562f19bdd2E', symObjAddr: 0x3FF80, symBinAddr: 0x10005E920, symSize: 0x70 }
  - { offsetInCU: 0x461F7, offset: 0xDB3E5, size: 0x8, addend: 0x0, symName: '__ZN4core4cell4once17OnceCell$LT$T$GT$8try_init17h73c8c6562f19bdd2E', symObjAddr: 0x3FF80, symBinAddr: 0x10005E920, symSize: 0x70 }
  - { offsetInCU: 0x4620C, offset: 0xDB3FA, size: 0x8, addend: 0x0, symName: '__ZN4core4cell4once17OnceCell$LT$T$GT$8try_init17h73c8c6562f19bdd2E', symObjAddr: 0x3FF80, symBinAddr: 0x10005E920, symSize: 0x70 }
  - { offsetInCU: 0x46220, offset: 0xDB40E, size: 0x8, addend: 0x0, symName: '__ZN4core4cell4once17OnceCell$LT$T$GT$8try_init17h73c8c6562f19bdd2E', symObjAddr: 0x3FF80, symBinAddr: 0x10005E920, symSize: 0x70 }
  - { offsetInCU: 0x462C4, offset: 0xDB4B2, size: 0x8, addend: 0x0, symName: '__ZN4core4cell4once17OnceCell$LT$T$GT$8try_init17hde99ac88bdb425f6E', symObjAddr: 0x403E0, symBinAddr: 0x10005E990, symSize: 0xEA0 }
  - { offsetInCU: 0x47AE2, offset: 0xDCCD0, size: 0x8, addend: 0x0, symName: '__ZN4core4cell4once17OnceCell$LT$T$GT$8try_init17hf7cafdd065ef3b7dE', symObjAddr: 0x41280, symBinAddr: 0x10005F830, symSize: 0x870 }
  - { offsetInCU: 0x487D9, offset: 0xDD9C7, size: 0x8, addend: 0x0, symName: '__ZN4core4cell4once17OnceCell$LT$T$GT$8try_init17ha84e8d45fd1b451cE', symObjAddr: 0x4A900, symBinAddr: 0x1000600A0, symSize: 0x80 }
  - { offsetInCU: 0x48A82, offset: 0xDDC70, size: 0x8, addend: 0x0, symName: '__ZN36_$LT$T$u20$as$u20$core..any..Any$GT$7type_id17h3c5c73335d7cd4f4E', symObjAddr: 0x59FA0, symBinAddr: 0x100055930, symSize: 0x30 }
  - { offsetInCU: 0x48AB0, offset: 0xDDC9E, size: 0x8, addend: 0x0, symName: '__ZN36_$LT$T$u20$as$u20$core..any..Any$GT$7type_id17he6aafb8b1734b4a0E', symObjAddr: 0x5E080, symBinAddr: 0x100059730, symSize: 0x30 }
  - { offsetInCU: 0x48E02, offset: 0xDDFF0, size: 0x8, addend: 0x0, symName: '__ZN44_$LT$$RF$T$u20$as$u20$core..fmt..Display$GT$3fmt17h28ddbc6aa7f53db1E', symObjAddr: 0x303E0, symBinAddr: 0x1000307C0, symSize: 0x90 }
  - { offsetInCU: 0x48EEB, offset: 0xDE0D9, size: 0x8, addend: 0x0, symName: '__ZN50_$LT$$BP$mut$u20$T$u20$as$u20$core..fmt..Debug$GT$3fmt17hf4f26fd37d92c11fE', symObjAddr: 0x34590, symBinAddr: 0x100034430, symSize: 0xE0 }
  - { offsetInCU: 0x49078, offset: 0xDE266, size: 0x8, addend: 0x0, symName: '__ZN42_$LT$$RF$T$u20$as$u20$core..fmt..Debug$GT$3fmt17h0c3ca93668ff315eE', symObjAddr: 0x4B620, symBinAddr: 0x100047640, symSize: 0x20 }
  - { offsetInCU: 0x490A9, offset: 0xDE297, size: 0x8, addend: 0x0, symName: '__ZN42_$LT$$RF$T$u20$as$u20$core..fmt..Debug$GT$3fmt17hfd78979970abdea8E', symObjAddr: 0x4B640, symBinAddr: 0x100047660, symSize: 0x20 }
  - { offsetInCU: 0x490C3, offset: 0xDE2B1, size: 0x8, addend: 0x0, symName: '__ZN42_$LT$$RF$T$u20$as$u20$core..fmt..Debug$GT$3fmt17h596a378c4581234dE', symObjAddr: 0x58CB0, symBinAddr: 0x1000549C0, symSize: 0x30 }
  - { offsetInCU: 0x49108, offset: 0xDE2F6, size: 0x8, addend: 0x0, symName: '__ZN42_$LT$$RF$T$u20$as$u20$core..fmt..Debug$GT$3fmt17h313c5a6651f557f7E', symObjAddr: 0x59B80, symBinAddr: 0x1000555B0, symSize: 0xC0 }
  - { offsetInCU: 0x4928E, offset: 0xDE47C, size: 0x8, addend: 0x0, symName: '__ZN42_$LT$$RF$T$u20$as$u20$core..fmt..Debug$GT$3fmt17h18e85a46996a5f9aE', symObjAddr: 0x59C40, symBinAddr: 0x100055670, symSize: 0x40 }
  - { offsetInCU: 0x492DF, offset: 0xDE4CD, size: 0x8, addend: 0x0, symName: '__ZN4core3fmt3num50_$LT$impl$u20$core..fmt..Debug$u20$for$u20$i32$GT$3fmt17he2632321170aca24E', symObjAddr: 0x4B6E0, symBinAddr: 0x100047700, symSize: 0x30 }
  - { offsetInCU: 0x49342, offset: 0xDE530, size: 0x8, addend: 0x0, symName: __ZN4core3fmt5Write10write_char17h131a08c0b09a7476E, symObjAddr: 0x58820, symBinAddr: 0x100054560, symSize: 0x150 }
  - { offsetInCU: 0x49529, offset: 0xDE717, size: 0x8, addend: 0x0, symName: __ZN4core3fmt5Write9write_fmt17h84087f6288292fadE, symObjAddr: 0x58970, symBinAddr: 0x1000546B0, symSize: 0x30 }
  - { offsetInCU: 0x49582, offset: 0xDE770, size: 0x8, addend: 0x0, symName: __ZN4core3fmt5Write10write_char17hd21aeada4d0d154eE, symObjAddr: 0x59D50, symBinAddr: 0x100055780, symSize: 0x170 }
  - { offsetInCU: 0x49758, offset: 0xDE946, size: 0x8, addend: 0x0, symName: __ZN4core3fmt5Write9write_fmt17he274d1a67fcc3d48E, symObjAddr: 0x59EC0, symBinAddr: 0x1000558F0, symSize: 0x30 }
  - { offsetInCU: 0x497B1, offset: 0xDE99F, size: 0x8, addend: 0x0, symName: __ZN4core3fmt5Write9write_fmt17h308ca72226967c20E, symObjAddr: 0x5E250, symBinAddr: 0x100059900, symSize: 0x30 }
  - { offsetInCU: 0x49870, offset: 0xDEA5E, size: 0x8, addend: 0x0, symName: __ZN4core5panic12PanicPayload6as_str17h8dcab50f54d19120E, symObjAddr: 0x59F90, symBinAddr: 0x100055920, symSize: 0x10 }
  - { offsetInCU: 0x49981, offset: 0xDEB6F, size: 0x8, addend: 0x0, symName: '__ZN55_$LT$$RF$str$u20$as$u20$core..str..pattern..Pattern$GT$15is_contained_in17h560960d0a3a2bec2E', symObjAddr: 0x574D0, symBinAddr: 0x1000532C0, symSize: 0x780 }
  - { offsetInCU: 0x4A170, offset: 0xDF35E, size: 0x8, addend: 0x0, symName: '__ZN4core3str7pattern13simd_contains28_$u7b$$u7b$closure$u7d$$u7d$17h16c218d482398ae9E', symObjAddr: 0x57C50, symBinAddr: 0x100060350, symSize: 0xB0 }
  - { offsetInCU: 0x4A50D, offset: 0xDF6FB, size: 0x8, addend: 0x0, symName: __ZN4core9panicking13assert_failed17hf7dc448def66bddcE, symObjAddr: 0x58C7D, symBinAddr: 0x10006040D, symSize: 0x33 }
  - { offsetInCU: 0x4A9FC, offset: 0xDFBEA, size: 0x8, addend: 0x0, symName: __ZN6object4read7archive13ArchiveMember5parse17h93ec4afa8fa14fb8E, symObjAddr: 0x3A3B0, symBinAddr: 0x10003A170, symSize: 0x4C0 }
  - { offsetInCU: 0x4B7E8, offset: 0xE09D6, size: 0x8, addend: 0x0, symName: '__ZN5gimli4read5dwarf14Dwarf$LT$R$GT$11attr_string17h1dcb4011983d1b0cE', symObjAddr: 0x3E0F0, symBinAddr: 0x10003B910, symSize: 0x210 }
  - { offsetInCU: 0x4C059, offset: 0xE1247, size: 0x8, addend: 0x0, symName: '__ZN5gimli4read5dwarf13Unit$LT$R$GT$3new17h58857f94e4fb3742E', symObjAddr: 0x4C5C0, symBinAddr: 0x100048550, symSize: 0x27C0 }
  - { offsetInCU: 0x4F7B9, offset: 0xE49A7, size: 0x8, addend: 0x0, symName: '__ZN5gimli4read7aranges30ArangeHeader$LT$R$C$Offset$GT$5parse17h985de2172db4271eE', symObjAddr: 0x4B9C0, symBinAddr: 0x100047950, symSize: 0x2A0 }
  - { offsetInCU: 0x50266, offset: 0xE5454, size: 0x8, addend: 0x0, symName: '__ZN5gimli4read4unit22EntriesCursor$LT$R$GT$10next_entry17hadb1f25dde84aa3eE', symObjAddr: 0x4A5E0, symBinAddr: 0x100046680, symSize: 0x320 }
  - { offsetInCU: 0x508A1, offset: 0xE5A8F, size: 0x8, addend: 0x0, symName: '__ZN5gimli4read4unit18Attribute$LT$R$GT$5value17h5cb52ce3df0f0032E', symObjAddr: 0x447B0, symBinAddr: 0x100040850, symSize: 0xA30 }
  - { offsetInCU: 0x5100B, offset: 0xE61F9, size: 0x8, addend: 0x0, symName: __ZN5gimli4read4unit15parse_attribute17hf114a65a289e17f9E, symObjAddr: 0x41AF0, symBinAddr: 0x10003DB90, symSize: 0x1770 }
  - { offsetInCU: 0x54171, offset: 0xE935F, size: 0x8, addend: 0x0, symName: '__ZN5gimli4read4unit32AttributeValue$LT$R$C$Offset$GT$11udata_value17hf6fdb8ea7d676f74E', symObjAddr: 0x45940, symBinAddr: 0x1000419E0, symSize: 0x70 }
  - { offsetInCU: 0x54185, offset: 0xE9373, size: 0x8, addend: 0x0, symName: __ZN5gimli4read4unit15skip_attributes17h9bb0e4ad748d58ffE, symObjAddr: 0x46D20, symBinAddr: 0x100042DC0, symSize: 0x820 }
  - { offsetInCU: 0x54B32, offset: 0xE9D20, size: 0x8, addend: 0x0, symName: '__ZN5gimli4read4unit33DebugInfoUnitHeadersIter$LT$R$GT$4next17hb05e7c3e029bd15fE', symObjAddr: 0x4BE40, symBinAddr: 0x100047DD0, symSize: 0x660 }
  - { offsetInCU: 0x55C98, offset: 0xEAE86, size: 0x8, addend: 0x0, symName: __ZN5gimli4read6reader6Reader17read_sized_offset17h227726c4b0a30189E, symObjAddr: 0x48690, symBinAddr: 0x100044730, symSize: 0x120 }
  - { offsetInCU: 0x5609C, offset: 0xEB28A, size: 0x8, addend: 0x0, symName: __ZN5gimli4read6reader6Reader11read_offset17hf76dea3541326fefE, symObjAddr: 0x487B0, symBinAddr: 0x100044850, symSize: 0xB0 }
  - { offsetInCU: 0x56318, offset: 0xEB506, size: 0x8, addend: 0x0, symName: __ZN5gimli4read6reader6Reader12read_uleb12817h6164d327c8951d20E, symObjAddr: 0x4F810, symBinAddr: 0x10004B7A0, symSize: 0xA0 }
  - { offsetInCU: 0x566AE, offset: 0xEB89C, size: 0x8, addend: 0x0, symName: '__ZN5gimli4read8rnglists20RngListIter$LT$R$GT$4next17h561d2c888d198d87E', symObjAddr: 0x47600, symBinAddr: 0x1000436A0, symSize: 0xFD0 }
  - { offsetInCU: 0x58D2C, offset: 0xEDF1A, size: 0x8, addend: 0x0, symName: '__ZN5gimli4read5index18UnitIndex$LT$R$GT$5parse17h5e0e44bfaf0898e3E', symObjAddr: 0x4F150, symBinAddr: 0x10004B0E0, symSize: 0x320 }
  - { offsetInCU: 0x58D48, offset: 0xEDF36, size: 0x8, addend: 0x0, symName: '__ZN5gimli4read5index18UnitIndex$LT$R$GT$5parse17h5e0e44bfaf0898e3E', symObjAddr: 0x4F150, symBinAddr: 0x10004B0E0, symSize: 0x320 }
  - { offsetInCU: 0x58D5C, offset: 0xEDF4A, size: 0x8, addend: 0x0, symName: '__ZN5gimli4read5index18UnitIndex$LT$R$GT$5parse17h5e0e44bfaf0898e3E', symObjAddr: 0x4F150, symBinAddr: 0x10004B0E0, symSize: 0x320 }
  - { offsetInCU: 0x59441, offset: 0xEE62F, size: 0x8, addend: 0x0, symName: '__ZN5gimli4read4line27FileEntry$LT$R$C$Offset$GT$5parse17ha17aad93470d4022E', symObjAddr: 0x4FD10, symBinAddr: 0x10004BCA0, symSize: 0x250 }
  - { offsetInCU: 0x59755, offset: 0xEE943, size: 0x8, addend: 0x0, symName: __ZN5gimli4read4line15FileEntryFormat5parse17heab7db220e20f692E, symObjAddr: 0x4F4D0, symBinAddr: 0x10004B460, symSize: 0x340 }
  - { offsetInCU: 0x59EF1, offset: 0xEF0DF, size: 0x8, addend: 0x0, symName: __ZN5gimli4read4line18parse_directory_v517ha5335dc9f607af2dE, symObjAddr: 0x4F8B0, symBinAddr: 0x10004B840, symSize: 0x110 }
  - { offsetInCU: 0x59F67, offset: 0xEF155, size: 0x8, addend: 0x0, symName: __ZN5gimli4read4line13parse_file_v517he76fe9eb17547951E, symObjAddr: 0x4F9C0, symBinAddr: 0x10004B950, symSize: 0x350 }
  - { offsetInCU: 0x5A0D9, offset: 0xEF2C7, size: 0x8, addend: 0x0, symName: __ZN5gimli4read4line15parse_attribute17h1deec55ce732856aE, symObjAddr: 0x4FF60, symBinAddr: 0x10004BEF0, symSize: 0xA80 }
  - { offsetInCU: 0x5C077, offset: 0xF1265, size: 0x8, addend: 0x0, symName: '__ZN9addr2line4unit16ResUnit$LT$R$GT$25find_function_or_location28_$u7b$$u7b$closure$u7d$$u7d$17hdf418aabf4d7fee0E', symObjAddr: 0x3FFF0, symBinAddr: 0x10003D7A0, symSize: 0x3F0 }
  - { offsetInCU: 0x5C3EE, offset: 0xF15DC, size: 0x8, addend: 0x0, symName: '__ZN9addr2line4unit16ResUnit$LT$R$GT$25find_function_or_location17h9c2248f5314a6c1fE', symObjAddr: 0x3F510, symBinAddr: 0x10003CD30, symSize: 0x4E0 }
  - { offsetInCU: 0x5C91F, offset: 0xF1B0D, size: 0x8, addend: 0x0, symName: __ZN9addr2line4line11render_file17h3b897a2924c6c2caE, symObjAddr: 0x3D2C0, symBinAddr: 0x10003AB50, symSize: 0xB70 }
  - { offsetInCU: 0x5D74A, offset: 0xF2938, size: 0x8, addend: 0x0, symName: '__ZN9addr2line6lookup30LoopingLookup$LT$T$C$L$C$F$GT$10new_lookup17h0d4c0b4d4cc466afE', symObjAddr: 0x3F9F0, symBinAddr: 0x10003D210, symSize: 0x500 }
  - { offsetInCU: 0x5DC2A, offset: 0xF2E18, size: 0x8, addend: 0x0, symName: '__ZN9addr2line5frame18FrameIter$LT$R$GT$4next17hc1c39c91e4c9a756E', symObjAddr: 0x3A090, symBinAddr: 0x100039E50, symSize: 0x320 }
  - { offsetInCU: 0x5E1B1, offset: 0xF339F, size: 0x8, addend: 0x0, symName: '__ZN9addr2line8function17Function$LT$R$GT$14parse_children17h70bab8b7c5ab6ec1E', symObjAddr: 0x43260, symBinAddr: 0x10003F300, symSize: 0x1340 }
  - { offsetInCU: 0x5F7B8, offset: 0xF49A6, size: 0x8, addend: 0x0, symName: __ZN9addr2line8function9name_attr17hcada96ddadd8b715E, symObjAddr: 0x451E0, symBinAddr: 0x100041280, symSize: 0x2D0 }
  - { offsetInCU: 0x5FB3A, offset: 0xF4D28, size: 0x8, addend: 0x0, symName: __ZN9addr2line8function10name_entry17h01452374ece9d22cE, symObjAddr: 0x45500, symBinAddr: 0x1000415A0, symSize: 0x440 }
  - { offsetInCU: 0x1F, offset: 0xF51F4, size: 0x8, addend: 0x0, symName: __ZN4core9panicking18panic_bounds_check17hb761434a894b4b06E, symObjAddr: 0xF18D, symBinAddr: 0x10005A71D, symSize: 0x63 }
  - { offsetInCU: 0x74, offset: 0xF5249, size: 0x8, addend: 0x0, symName: __ZN4core3fmt9Formatter12pad_integral17h329addb209e51a44E, symObjAddr: 0xF320, symBinAddr: 0x100010C80, symSize: 0x290 }
  - { offsetInCU: 0x367, offset: 0xF553C, size: 0x8, addend: 0x0, symName: __ZN4core3fmt9Formatter3pad17h474fb2c8932321aaE, symObjAddr: 0xF920, symBinAddr: 0x100011180, symSize: 0x230 }
  - { offsetInCU: 0x62D, offset: 0xF5802, size: 0x8, addend: 0x0, symName: __ZN4core3fmt9Formatter25debug_tuple_field1_finish17hf0a370f4125278d6E, symObjAddr: 0x12300, symBinAddr: 0x100013610, symSize: 0x120 }
  - { offsetInCU: 0x9A5, offset: 0xF5B7A, size: 0x8, addend: 0x0, symName: '__ZN4core3fmt3num3imp54_$LT$impl$u20$core..fmt..Display$u20$for$u20$usize$GT$3fmt17h48296c45f9d4b9f2E', symObjAddr: 0xF1F0, symBinAddr: 0x100010B70, symSize: 0x110 }
  - { offsetInCU: 0xAD3, offset: 0xF5CA8, size: 0x8, addend: 0x0, symName: '__ZN4core3fmt3num3imp52_$LT$impl$u20$core..fmt..Display$u20$for$u20$u64$GT$3fmt17heb358e5886a1ac71E', symObjAddr: 0xFF00, symBinAddr: 0x100011600, symSize: 0x110 }
  - { offsetInCU: 0xC01, offset: 0xF5DD6, size: 0x8, addend: 0x0, symName: '__ZN4core3fmt3num3imp52_$LT$impl$u20$core..fmt..Display$u20$for$u20$u32$GT$3fmt17h1f734efcf4aaed11E', symObjAddr: 0x10090, symBinAddr: 0x100011710, symSize: 0x110 }
  - { offsetInCU: 0xD2F, offset: 0xF5F04, size: 0x8, addend: 0x0, symName: '__ZN4core3fmt3num3imp51_$LT$impl$u20$core..fmt..Display$u20$for$u20$u8$GT$3fmt17he858a3bce40a2281E', symObjAddr: 0x112E0, symBinAddr: 0x100012850, symSize: 0x90 }
  - { offsetInCU: 0xE33, offset: 0xF6008, size: 0x8, addend: 0x0, symName: '__ZN4core3fmt3num3imp52_$LT$impl$u20$core..fmt..Display$u20$for$u20$u16$GT$3fmt17h4380c07592aa60fbE', symObjAddr: 0x113F0, symBinAddr: 0x1000128E0, symSize: 0xF0 }
  - { offsetInCU: 0xF3F, offset: 0xF6114, size: 0x8, addend: 0x0, symName: '__ZN4core3fmt3num3imp52_$LT$impl$u20$core..fmt..Display$u20$for$u20$i32$GT$3fmt17h6c4630d5951a4662E', symObjAddr: 0x12B40, symBinAddr: 0x100013E00, symSize: 0x120 }
  - { offsetInCU: 0x1065, offset: 0xF623A, size: 0x8, addend: 0x0, symName: '__ZN4core3fmt3num3imp54_$LT$impl$u20$core..fmt..Display$u20$for$u20$isize$GT$3fmt17h38365a909ac4dd3cE', symObjAddr: 0x12C60, symBinAddr: 0x100013F20, symSize: 0x120 }
  - { offsetInCU: 0x126C, offset: 0xF6441, size: 0x8, addend: 0x0, symName: '__ZN4core3fmt3num52_$LT$impl$u20$core..fmt..UpperHex$u20$for$u20$u8$GT$3fmt17haecaf8b6765a4f74E', symObjAddr: 0x12990, symBinAddr: 0x100013C50, symSize: 0x90 }
  - { offsetInCU: 0x136E, offset: 0xF6543, size: 0x8, addend: 0x0, symName: '__ZN4core3fmt3num53_$LT$impl$u20$core..fmt..LowerHex$u20$for$u20$u32$GT$3fmt17h51012b333eb38f1eE', symObjAddr: 0x12A20, symBinAddr: 0x100013CE0, symSize: 0x90 }
  - { offsetInCU: 0x145D, offset: 0xF6632, size: 0x8, addend: 0x0, symName: '__ZN4core3fmt3num52_$LT$impl$u20$core..fmt..LowerHex$u20$for$u20$u8$GT$3fmt17h4628f76140daad1aE', symObjAddr: 0x12AB0, symBinAddr: 0x100013D70, symSize: 0x90 }
  - { offsetInCU: 0x154C, offset: 0xF6721, size: 0x8, addend: 0x0, symName: '__ZN4core3fmt3num53_$LT$impl$u20$core..fmt..LowerHex$u20$for$u20$i32$GT$3fmt17h1cd298de9e47eb84E', symObjAddr: 0x12E00, symBinAddr: 0x100014040, symSize: 0x90 }
  - { offsetInCU: 0x163B, offset: 0xF6810, size: 0x8, addend: 0x0, symName: '__ZN4core3fmt3num53_$LT$impl$u20$core..fmt..UpperHex$u20$for$u20$i32$GT$3fmt17he1addbfa7262fce2E', symObjAddr: 0x12E90, symBinAddr: 0x1000140D0, symSize: 0x90 }
  - { offsetInCU: 0x173D, offset: 0xF6912, size: 0x8, addend: 0x0, symName: '__ZN4core3fmt3num53_$LT$impl$u20$core..fmt..LowerHex$u20$for$u20$u64$GT$3fmt17hddc87662fc91a31fE', symObjAddr: 0x12F20, symBinAddr: 0x100014160, symSize: 0x90 }
  - { offsetInCU: 0x18C0, offset: 0xF6A95, size: 0x8, addend: 0x0, symName: __ZN4core3fmt9Formatter12pad_integral12write_prefix17h1abdeece6f0b8ae0E, symObjAddr: 0xF7C0, symBinAddr: 0x100011120, symSize: 0x60 }
  - { offsetInCU: 0x190B, offset: 0xF6AE0, size: 0x8, addend: 0x0, symName: '__ZN44_$LT$$RF$T$u20$as$u20$core..fmt..Display$GT$3fmt17h76d55d1629b06b0eE', symObjAddr: 0xFCB0, symBinAddr: 0x1000113B0, symSize: 0x20 }
  - { offsetInCU: 0x1942, offset: 0xF6B17, size: 0x8, addend: 0x0, symName: '__ZN59_$LT$core..fmt..Arguments$u20$as$u20$core..fmt..Display$GT$3fmt17h0074b23fde2bdd05E', symObjAddr: 0xFCD0, symBinAddr: 0x1000113D0, symSize: 0x20 }
  - { offsetInCU: 0x1963, offset: 0xF6B38, size: 0x8, addend: 0x0, symName: '__ZN42_$LT$$RF$T$u20$as$u20$core..fmt..Debug$GT$3fmt17h33261c87e66ba4e9E', symObjAddr: 0xFCF0, symBinAddr: 0x1000113F0, symSize: 0x20 }
  - { offsetInCU: 0x197D, offset: 0xF6B52, size: 0x8, addend: 0x0, symName: '__ZN42_$LT$$RF$T$u20$as$u20$core..fmt..Debug$GT$3fmt17hf314ad2cc408e2e0E', symObjAddr: 0x12080, symBinAddr: 0x100013390, symSize: 0x100 }
  - { offsetInCU: 0x1B2F, offset: 0xF6D04, size: 0x8, addend: 0x0, symName: __ZN4core3fmt5write17h871648f31469dcd6E, symObjAddr: 0xFD10, symBinAddr: 0x100011410, symSize: 0x1F0 }
  - { offsetInCU: 0x1CF9, offset: 0xF6ECE, size: 0x8, addend: 0x0, symName: '__ZN43_$LT$char$u20$as$u20$core..fmt..Display$GT$3fmt17hfb1d36e81abdc3ebE', symObjAddr: 0x109E0, symBinAddr: 0x100011FC0, symSize: 0xD0 }
  - { offsetInCU: 0x1D9B, offset: 0xF6F70, size: 0x8, addend: 0x0, symName: __ZN4core3fmt8builders11DebugStruct5field17h4fb74a7502dc1c82E, symObjAddr: 0x10E50, symBinAddr: 0x1000123C0, symSize: 0x190 }
  - { offsetInCU: 0x1FAF, offset: 0xF7184, size: 0x8, addend: 0x0, symName: __ZN4core3fmt8builders11DebugStruct6finish17hf1c9bf398cf456a4E, symObjAddr: 0x12180, symBinAddr: 0x100013490, symSize: 0x60 }
  - { offsetInCU: 0x20E9, offset: 0xF72BE, size: 0x8, addend: 0x0, symName: '__ZN68_$LT$core..fmt..builders..PadAdapter$u20$as$u20$core..fmt..Write$GT$9write_str17he1ac9e4c9a5fb9aaE', symObjAddr: 0x10FE0, symBinAddr: 0x100012550, symSize: 0x270 }
  - { offsetInCU: 0x2343, offset: 0xF7518, size: 0x8, addend: 0x0, symName: '__ZN68_$LT$core..fmt..builders..PadAdapter$u20$as$u20$core..fmt..Write$GT$10write_char17he082eaa23ea00ceeE', symObjAddr: 0x11250, symBinAddr: 0x1000127C0, symSize: 0x60 }
  - { offsetInCU: 0x23E2, offset: 0xF75B7, size: 0x8, addend: 0x0, symName: __ZN4core3fmt8builders9DebugList5entry17h1902212d2abf28a3E, symObjAddr: 0x121E0, symBinAddr: 0x1000134F0, symSize: 0x120 }
  - { offsetInCU: 0x263F, offset: 0xF7814, size: 0x8, addend: 0x0, symName: __ZN4core3fmt5Write9write_fmt17h201b5eb6a92b5860E, symObjAddr: 0x112B0, symBinAddr: 0x100012820, symSize: 0x30 }
  - { offsetInCU: 0x26C0, offset: 0xF7895, size: 0x8, addend: 0x0, symName: '__ZN40_$LT$str$u20$as$u20$core..fmt..Debug$GT$3fmt17h0a934aa101d0da7fE', symObjAddr: 0x11540, symBinAddr: 0x1000129D0, symSize: 0x350 }
  - { offsetInCU: 0x2AF9, offset: 0xF7CCE, size: 0x8, addend: 0x0, symName: '__ZN41_$LT$char$u20$as$u20$core..fmt..Debug$GT$3fmt17hb77b6cbd6fcc4befE', symObjAddr: 0x11C50, symBinAddr: 0x1000130D0, symSize: 0x90 }
  - { offsetInCU: 0x2C5A, offset: 0xF7E2F, size: 0x8, addend: 0x0, symName: __ZN4core3ffi5c_str4CStr19from_bytes_with_nul17hb95d91eac2fd1a47E, symObjAddr: 0x10B40, symBinAddr: 0x1000120B0, symSize: 0x110 }
  - { offsetInCU: 0x2D5D, offset: 0xF7F32, size: 0x8, addend: 0x0, symName: __ZN4core5slice4sort6shared9smallsort22panic_on_ord_violation17h9bc7fe34271ff080E, symObjAddr: 0x12500, symBinAddr: 0x10005ADF0, symSize: 0x50 }
  - { offsetInCU: 0x2E0C, offset: 0xF7FE1, size: 0x8, addend: 0x0, symName: __ZN4core5slice5index26slice_start_index_len_fail8do_panic7runtime17h569ca7bbd04d16ceE, symObjAddr: 0xF830, symBinAddr: 0x10005A7B0, symSize: 0x70 }
  - { offsetInCU: 0x2E40, offset: 0xF8015, size: 0x8, addend: 0x0, symName: __ZN4core5slice5index26slice_start_index_len_fail17h84c1d81ab0bea98eE, symObjAddr: 0xF820, symBinAddr: 0x10005A7A0, symSize: 0x10 }
  - { offsetInCU: 0x2E86, offset: 0xF805B, size: 0x8, addend: 0x0, symName: __ZN4core5slice5index24slice_end_index_len_fail8do_panic7runtime17h44d00755c9d9af2eE, symObjAddr: 0xF8B0, symBinAddr: 0x10005A830, symSize: 0x70 }
  - { offsetInCU: 0x2EBA, offset: 0xF808F, size: 0x8, addend: 0x0, symName: __ZN4core5slice5index24slice_end_index_len_fail17hf12a60772228019aE, symObjAddr: 0xF8A0, symBinAddr: 0x10005A820, symSize: 0x10 }
  - { offsetInCU: 0x2FA8, offset: 0xF817D, size: 0x8, addend: 0x0, symName: __ZN4core5slice5index22slice_index_order_fail8do_panic7runtime17h0769df7bcdd07f85E, symObjAddr: 0x10970, symBinAddr: 0x10005AAB0, symSize: 0x70 }
  - { offsetInCU: 0x2FDC, offset: 0xF81B1, size: 0x8, addend: 0x0, symName: __ZN4core5slice5index22slice_index_order_fail17hbf057eb532f1264dE, symObjAddr: 0x10940, symBinAddr: 0x10005AA80, symSize: 0x10 }
  - { offsetInCU: 0x330A, offset: 0xF84DF, size: 0x8, addend: 0x0, symName: __ZN4core5slice6memchr14memchr_aligned17h986f1a46d126d8b9E, symObjAddr: 0x12420, symBinAddr: 0x100013730, symSize: 0xE0 }
  - { offsetInCU: 0x34F0, offset: 0xF86C5, size: 0x8, addend: 0x0, symName: __ZN4core3num9int_log1030panic_for_nonpositive_argument17h1c9a4bbb4231fc3bE, symObjAddr: 0x10050, symBinAddr: 0x10005AA40, symSize: 0x40 }
  - { offsetInCU: 0x35CA, offset: 0xF879F, size: 0x8, addend: 0x0, symName: __ZN4core9panicking18panic_bounds_check17hb761434a894b4b06E, symObjAddr: 0xF18D, symBinAddr: 0x10005A71D, symSize: 0x63 }
  - { offsetInCU: 0x35F5, offset: 0xF87CA, size: 0x8, addend: 0x0, symName: __ZN4core9panicking9panic_fmt17h4c78cb2154e78e17E, symObjAddr: 0xF300, symBinAddr: 0x10005A780, symSize: 0x20 }
  - { offsetInCU: 0x3624, offset: 0xF87F9, size: 0x8, addend: 0x0, symName: __ZN4core9panicking5panic17h66d5d1ae20b0aad4E, symObjAddr: 0xFB50, symBinAddr: 0x10005A8A0, symSize: 0x44 }
  - { offsetInCU: 0x3653, offset: 0xF8828, size: 0x8, addend: 0x0, symName: __ZN4core9panicking19assert_failed_inner17h04d89ee8dade3bbdE, symObjAddr: 0xFB94, symBinAddr: 0x10005A8E4, symSize: 0x11C }
  - { offsetInCU: 0x3693, offset: 0xF8868, size: 0x8, addend: 0x0, symName: __ZN4core9panicking11panic_const23panic_const_div_by_zero17hd4ce1e54c73da8e4E, symObjAddr: 0x10010, symBinAddr: 0x10005AA00, symSize: 0x40 }
  - { offsetInCU: 0x36C2, offset: 0xF8897, size: 0x8, addend: 0x0, symName: __ZN4core9panicking11panic_const24panic_const_div_overflow17h74f3da747da50fbcE, symObjAddr: 0x12D80, symBinAddr: 0x10005AE40, symSize: 0x40 }
  - { offsetInCU: 0x36F1, offset: 0xF88C6, size: 0x8, addend: 0x0, symName: __ZN4core9panicking11panic_const23panic_const_rem_by_zero17hd9f7f76da68c1c53E, symObjAddr: 0x12DC0, symBinAddr: 0x10005AE80, symSize: 0x40 }
  - { offsetInCU: 0x3743, offset: 0xF8918, size: 0x8, addend: 0x0, symName: __ZN4core9panicking18panic_nounwind_fmt17hb712abca8e788068E, symObjAddr: 0x11F10, symBinAddr: 0x10005AC80, symSize: 0x5B }
  - { offsetInCU: 0x3788, offset: 0xF895D, size: 0x8, addend: 0x0, symName: __ZN4core9panicking19panic_cannot_unwind17h06805446e0c52f68E, symObjAddr: 0x11F6B, symBinAddr: 0x10005ACDB, symSize: 0x15 }
  - { offsetInCU: 0x37A3, offset: 0xF8978, size: 0x8, addend: 0x0, symName: __ZN4core9panicking14panic_nounwind17ha8c3aca76a6cbcd5E, symObjAddr: 0x11F80, symBinAddr: 0x10005ACF0, symSize: 0x60 }
  - { offsetInCU: 0x37D3, offset: 0xF89A8, size: 0x8, addend: 0x0, symName: __ZN4core9panicking26panic_nounwind_nobacktrace17hd863481b8ffea48fE, symObjAddr: 0x11FE0, symBinAddr: 0x10005AD50, symSize: 0x58 }
  - { offsetInCU: 0x3803, offset: 0xF89D8, size: 0x8, addend: 0x0, symName: __ZN4core9panicking16panic_in_cleanup17hcef861798cd1691fE, symObjAddr: 0x12038, symBinAddr: 0x10005ADA8, symSize: 0x9 }
  - { offsetInCU: 0x381E, offset: 0xF89F3, size: 0x8, addend: 0x0, symName: __ZN4core9panicking13assert_failed17he3362a14e4c05c94E, symObjAddr: 0x12041, symBinAddr: 0x10005ADB1, symSize: 0x3F }
  - { offsetInCU: 0x3C3D, offset: 0xF8E12, size: 0x8, addend: 0x0, symName: __ZN4core3str5count14do_count_chars17h90b40240ed41fa95E, symObjAddr: 0xF5B0, symBinAddr: 0x100010F10, symSize: 0x210 }
  - { offsetInCU: 0x4103, offset: 0xF92D8, size: 0x8, addend: 0x0, symName: '__ZN87_$LT$core..str..lossy..Utf8Chunks$u20$as$u20$core..iter..traits..iterator..Iterator$GT$4next17hb0da9689245d7285E', symObjAddr: 0x101A0, symBinAddr: 0x100011820, symSize: 0x190 }
  - { offsetInCU: 0x4316, offset: 0xF94EB, size: 0x8, addend: 0x0, symName: __ZN4core3str8converts9from_utf817h9c768cc9062cbf5bE, symObjAddr: 0x10C50, symBinAddr: 0x1000121C0, symSize: 0x200 }
  - { offsetInCU: 0x4405, offset: 0xF95DA, size: 0x8, addend: 0x0, symName: __ZN4core3str7pattern11StrSearcher3new17ha6e8ab22ec1f96f7E, symObjAddr: 0x12550, symBinAddr: 0x100013810, symSize: 0x440 }
  - { offsetInCU: 0x47A8, offset: 0xF997D, size: 0x8, addend: 0x0, symName: __ZN4core3str16slice_error_fail17h3827d9f335c0b60fE, symObjAddr: 0x11890, symBinAddr: 0x10005AC70, symSize: 0x10 }
  - { offsetInCU: 0x47C2, offset: 0xF9997, size: 0x8, addend: 0x0, symName: __ZN4core3str19slice_error_fail_rt17h37f2ab0ef7822224E, symObjAddr: 0x118A0, symBinAddr: 0x100012D20, symSize: 0x3B0 }
  - { offsetInCU: 0x4BCE, offset: 0xF9DA3, size: 0x8, addend: 0x0, symName: __ZN4core6result13unwrap_failed17hbb61d8659fe9d2fbE, symObjAddr: 0x11370, symBinAddr: 0x10005AB90, symSize: 0x80 }
  - { offsetInCU: 0x4D54, offset: 0xF9F29, size: 0x8, addend: 0x0, symName: '__ZN4core4char7methods22_$LT$impl$u20$char$GT$16escape_debug_ext17hdd07a53b115e7068E', symObjAddr: 0x10330, symBinAddr: 0x1000119B0, symSize: 0x2D0 }
  - { offsetInCU: 0x4FD5, offset: 0xFA1AA, size: 0x8, addend: 0x0, symName: __ZN4core7unicode12unicode_data15grapheme_extend11lookup_slow17h3afa7d57b03e2635E, symObjAddr: 0x10730, symBinAddr: 0x100011DB0, symSize: 0x100 }
  - { offsetInCU: 0x51DF, offset: 0xFA3B4, size: 0x8, addend: 0x0, symName: __ZN4core7unicode9printable12is_printable17he2bfcb1082c9f403E, symObjAddr: 0x10600, symBinAddr: 0x100011C80, symSize: 0x130 }
  - { offsetInCU: 0x51F9, offset: 0xFA3CE, size: 0x8, addend: 0x0, symName: __ZN4core7unicode9printable5check17h439482141e2db7dcE, symObjAddr: 0x10830, symBinAddr: 0x100011EB0, symSize: 0x110 }
  - { offsetInCU: 0x54FC, offset: 0xFA6D1, size: 0x8, addend: 0x0, symName: __ZN4core6option13unwrap_failed17h469e88c3831078b4E, symObjAddr: 0x10950, symBinAddr: 0x10005AA90, symSize: 0x20 }
  - { offsetInCU: 0x5517, offset: 0xFA6EC, size: 0x8, addend: 0x0, symName: __ZN4core6option13expect_failed17hff7007b9dc9bf216E, symObjAddr: 0x114E0, symBinAddr: 0x10005AC10, symSize: 0x60 }
  - { offsetInCU: 0x558C, offset: 0xFA761, size: 0x8, addend: 0x0, symName: '__ZN65_$LT$core..cell..BorrowMutError$u20$as$u20$core..fmt..Display$GT$3fmt17h6e61c527b8e42b9eE', symObjAddr: 0x10AB0, symBinAddr: 0x100012090, symSize: 0x20 }
  - { offsetInCU: 0x55D5, offset: 0xFA7AA, size: 0x8, addend: 0x0, symName: __ZN4core4cell22panic_already_borrowed8do_panic7runtime17hefd5062f211e7be7E, symObjAddr: 0x10AE0, symBinAddr: 0x10005AB30, symSize: 0x60 }
  - { offsetInCU: 0x5609, offset: 0xFA7DE, size: 0x8, addend: 0x0, symName: __ZN4core4cell22panic_already_borrowed17hb2e3ca68acbcbfc0E, symObjAddr: 0x10AD0, symBinAddr: 0x10005AB20, symSize: 0x10 }
  - { offsetInCU: 0x565D, offset: 0xFA832, size: 0x8, addend: 0x0, symName: '__ZN71_$LT$core..ops..range..Range$LT$Idx$GT$$u20$as$u20$core..fmt..Debug$GT$3fmt17ha4c9c491efe43fe0E', symObjAddr: 0x11CE0, symBinAddr: 0x100013160, symSize: 0x230 }
  - { offsetInCU: 0x1F, offset: 0xFAB9F, size: 0x8, addend: 0x0, symName: __ZN6memchr4arch6x86_646memchr10memchr_raw6detect17h23e89a6f471c39cbE, symObjAddr: 0x29270, symBinAddr: 0x1000296D0, symSize: 0x1B0 }
  - { offsetInCU: 0x21B, offset: 0xFAD9B, size: 0x8, addend: 0x0, symName: __ZN6memchr4arch6x86_646memchr10memchr_raw6detect17h23e89a6f471c39cbE, symObjAddr: 0x29270, symBinAddr: 0x1000296D0, symSize: 0x1B0 }
  - { offsetInCU: 0x7F8, offset: 0xFB378, size: 0x8, addend: 0x0, symName: __ZN6memchr4arch6x86_646memchr10memchr_raw9find_sse217hf2d7e85a4e55c579E, symObjAddr: 0x29420, symBinAddr: 0x100029880, symSize: 0x1A0 }
  - { offsetInCU: 0xDAB, offset: 0xFB92B, size: 0x8, addend: 0x0, symName: __ZN6memchr4arch6x86_646memchr11memchr2_raw6detect17h6c52a24f8491cc31E, symObjAddr: 0x295C0, symBinAddr: 0x100029A20, symSize: 0x1A0 }
  - { offsetInCU: 0x1443, offset: 0xFBFC3, size: 0x8, addend: 0x0, symName: __ZN6memchr4arch6x86_646memchr11memchr2_raw9find_sse217hf9a7059f0729b2f1E, symObjAddr: 0x29760, symBinAddr: 0x100029BC0, symSize: 0x1A0 }
  - { offsetInCU: 0x1F, offset: 0xFC758, size: 0x8, addend: 0x0, symName: __ZN10std_detect6detect5cache21detect_and_initialize17h54977aa6103228d5E, symObjAddr: 0x5E4C0, symBinAddr: 0x100060A40, symSize: 0x640 }
  - { offsetInCU: 0x61, offset: 0xFC79A, size: 0x8, addend: 0x0, symName: __ZN4core9core_arch3x865xsave7_xgetbv17hd653dc18b0768ff2E, symObjAddr: 0x5EB00, symBinAddr: 0x100059B40, symSize: 0x12 }
  - { offsetInCU: 0x175, offset: 0xFC8AE, size: 0x8, addend: 0x0, symName: __ZN10std_detect6detect5cache21detect_and_initialize17h54977aa6103228d5E, symObjAddr: 0x5E4C0, symBinAddr: 0x100060A40, symSize: 0x640 }
...
